ARM GAS  C:\Users\alexa\AppData\Local\Temp\ccGQaR7H.s 			page 1


   1              		.syntax unified
   2              		.cpu cortex-m3
   3              		.fpu softvfp
   4              		.eabi_attribute 20, 1
   5              		.eabi_attribute 21, 1
   6              		.eabi_attribute 23, 3
   7              		.eabi_attribute 24, 1
   8              		.eabi_attribute 25, 1
   9              		.eabi_attribute 26, 1
  10              		.eabi_attribute 30, 1
  11              		.eabi_attribute 34, 1
  12              		.eabi_attribute 18, 4
  13              		.thumb
  14              		.syntax unified
  15              		.file	"main.c"
  16              		.text
  17              	.Ltext0:
  18              		.cfi_sections	.debug_frame
  19              		.section	.text.ConvertToGram,"ax",%progbits
  20              		.align	2
  21              		.global	ConvertToGram
  22              		.thumb
  23              		.thumb_func
  24              		.type	ConvertToGram, %function
  25              	ConvertToGram:
  26              	.LFB65:
  27              		.file 1 "main.c"
   1:main.c        **** #include "project.h"
   2:main.c        **** #include <stdio.h>
   3:main.c        **** 
   4:main.c        **** uint16_t ConvertToGram(uint16_t adc_count);
   5:main.c        **** 
   6:main.c        **** // Kalibreringsværdier (Med 100g preload)
   7:main.c        **** #define ADC_M1      292
   8:main.c        **** #define ADC_M2      500
   9:main.c        **** #define ADC_M3      663
  10:main.c        **** #define ADC_M4      842
  11:main.c        **** #define ADC_M5      1037
  12:main.c        **** 
  13:main.c        **** #define M1_WEIGHT   0
  14:main.c        **** #define M2_WEIGHT   116
  15:main.c        **** #define M3_WEIGHT   203
  16:main.c        **** #define M4_WEIGHT   300
  17:main.c        **** #define M5_WEIGHT   400
  18:main.c        **** 
  19:main.c        **** int main(void)
  20:main.c        **** {
  21:main.c        ****     char uartBuffer[256];
  22:main.c        **** 
  23:main.c        ****     UART_1_Start();
  24:main.c        ****     ADC_SAR_1_Start();
  25:main.c        ****     ADC_SAR_1_StartConvert();
  26:main.c        **** 
  27:main.c        ****     UART_1_PutString("Scale application started\r\n");
  28:main.c        **** 
  29:main.c        ****     for(;;)
  30:main.c        ****     {
ARM GAS  C:\Users\alexa\AppData\Local\Temp\ccGQaR7H.s 			page 2


  31:main.c        ****         if (ADC_SAR_1_IsEndConversion(ADC_SAR_1_WAIT_FOR_RESULT))
  32:main.c        ****         {
  33:main.c        ****             uint16_t result = ADC_SAR_1_GetResult16();
  34:main.c        ****             snprintf(uartBuffer, sizeof(uartBuffer), "ADC Count: %d\r\nWeight: %dg\r\n\r\n", result
  35:main.c        ****             UART_1_PutString(uartBuffer);
  36:main.c        ****         }
  37:main.c        ****         CyDelay(100);
  38:main.c        ****     }
  39:main.c        **** }
  40:main.c        **** 
  41:main.c        **** uint16_t ConvertToGram(uint16_t adc_count) {
  28              		.loc 1 41 0
  29              		.cfi_startproc
  30              		@ args = 0, pretend = 0, frame = 24
  31              		@ frame_needed = 0, uses_anonymous_args = 0
  32              		@ link register save eliminated.
  33              	.LVL0:
  34 0000 70B4     		push	{r4, r5, r6}
  35              		.cfi_def_cfa_offset 12
  36              		.cfi_offset 4, -12
  37              		.cfi_offset 5, -8
  38              		.cfi_offset 6, -4
  39 0002 87B0     		sub	sp, sp, #28
  40              		.cfi_def_cfa_offset 40
  41 0004 0646     		mov	r6, r0
  42:main.c        ****     typedef struct {
  43:main.c        ****         uint16_t adc;
  44:main.c        ****         uint16_t gram;
  45:main.c        ****     } CalibrationPoint;
  46:main.c        **** 
  47:main.c        ****     CalibrationPoint points[] = {
  42              		.loc 1 47 0
  43 0006 204D     		ldr	r5, .L9
  44 0008 01AC     		add	r4, sp, #4
  45 000a 2868     		ldr	r0, [r5]	@ unaligned
  46              	.LVL1:
  47 000c 6968     		ldr	r1, [r5, #4]	@ unaligned
  48 000e AA68     		ldr	r2, [r5, #8]	@ unaligned
  49 0010 EB68     		ldr	r3, [r5, #12]	@ unaligned
  50 0012 0FC4     		stmia	r4!, {r0, r1, r2, r3}
  51 0014 2869     		ldr	r0, [r5, #16]	@ unaligned
  52 0016 2060     		str	r0, [r4]	@ unaligned
  53              	.LVL2:
  48:main.c        ****         {ADC_M1, M1_WEIGHT},
  49:main.c        ****         {ADC_M2, M2_WEIGHT},
  50:main.c        ****         {ADC_M3, M3_WEIGHT},
  51:main.c        ****         {ADC_M4, M4_WEIGHT},
  52:main.c        ****         {ADC_M5, M5_WEIGHT}
  53:main.c        ****     };
  54:main.c        **** 
  55:main.c        ****     int num_points = sizeof(points) / sizeof(points[0]);
  56:main.c        **** 
  57:main.c        ****     if (adc_count <= points[0].adc)
  54              		.loc 1 57 0
  55 0018 B6F5927F 		cmp	r6, #292
  56 001c 2DD9     		bls	.L6
  58:main.c        ****         return points[0].gram;
ARM GAS  C:\Users\alexa\AppData\Local\Temp\ccGQaR7H.s 			page 3


  59:main.c        ****     if (adc_count >= points[num_points - 1].adc)
  57              		.loc 1 59 0
  58 001e 40F20C43 		movw	r3, #1036
  59 0022 9E42     		cmp	r6, r3
  60 0024 2BD8     		bhi	.L7
  61 0026 0022     		movs	r2, #0
  62 0028 23E0     		b	.L3
  63              	.LVL3:
  64              	.L5:
  65              	.LBB2:
  60:main.c        ****         return points[num_points - 1].gram;
  61:main.c        **** 
  62:main.c        ****     for (int i = 0; i < num_points - 1; i++) {
  63:main.c        ****         if (adc_count >= points[i].adc && adc_count <= points[i + 1].adc) {
  66              		.loc 1 63 0
  67 002a 06AB     		add	r3, sp, #24
  68 002c 03EB8203 		add	r3, r3, r2, lsl #2
  69 0030 33F8141C 		ldrh	r1, [r3, #-20]
  70 0034 8E42     		cmp	r6, r1
  71 0036 1BD3     		bcc	.L4
  72              		.loc 1 63 0 is_stmt 0 discriminator 1
  73 0038 501C     		adds	r0, r2, #1
  74 003a 06AB     		add	r3, sp, #24
  75 003c 03EB8003 		add	r3, r3, r0, lsl #2
  76 0040 33F8143C 		ldrh	r3, [r3, #-20]
  77 0044 9E42     		cmp	r6, r3
  78 0046 13D8     		bhi	.L4
  79              	.LBB3:
  64:main.c        ****             int32_t adc_diff = points[i + 1].adc - points[i].adc;
  80              		.loc 1 64 0 is_stmt 1
  81 0048 5B1A     		subs	r3, r3, r1
  82              	.LVL4:
  65:main.c        ****             int32_t gram_diff = points[i + 1].gram - points[i].gram;
  83              		.loc 1 65 0
  84 004a 06AC     		add	r4, sp, #24
  85 004c 04EB8000 		add	r0, r4, r0, lsl #2
  86 0050 30F8124C 		ldrh	r4, [r0, #-18]
  87 0054 06A8     		add	r0, sp, #24
  88 0056 00EB8202 		add	r2, r0, r2, lsl #2
  89              	.LVL5:
  90 005a 32F8120C 		ldrh	r0, [r2, #-18]
  91 005e 221A     		subs	r2, r4, r0
  92              	.LVL6:
  66:main.c        ****             int32_t adc_offset = adc_count - points[i].adc;
  93              		.loc 1 66 0
  94 0060 761A     		subs	r6, r6, r1
  95              	.LVL7:
  67:main.c        **** 
  68:main.c        ****             return points[i].gram + ((adc_offset * gram_diff) / adc_diff);
  96              		.loc 1 68 0
  97 0062 06FB02F6 		mul	r6, r6, r2
  98              	.LVL8:
  99 0066 96FBF3F3 		sdiv	r3, r6, r3
 100              	.LVL9:
 101 006a 1844     		add	r0, r0, r3
 102 006c 80B2     		uxth	r0, r0
 103 006e 08E0     		b	.L2
ARM GAS  C:\Users\alexa\AppData\Local\Temp\ccGQaR7H.s 			page 4


 104              	.LVL10:
 105              	.L4:
 106              	.LBE3:
  62:main.c        ****         if (adc_count >= points[i].adc && adc_count <= points[i + 1].adc) {
 107              		.loc 1 62 0 discriminator 2
 108 0070 0132     		adds	r2, r2, #1
 109              	.LVL11:
 110              	.L3:
  62:main.c        ****         if (adc_count >= points[i].adc && adc_count <= points[i + 1].adc) {
 111              		.loc 1 62 0 is_stmt 0 discriminator 1
 112 0072 032A     		cmp	r2, #3
 113 0074 D9DD     		ble	.L5
 114              	.LBE2:
  69:main.c        ****         }
  70:main.c        ****     }
  71:main.c        **** 
  72:main.c        ****     return 0; // fallback – burde aldrig ske
 115              		.loc 1 72 0 is_stmt 1
 116 0076 0020     		movs	r0, #0
 117              	.LBB4:
 118 0078 03E0     		b	.L2
 119              	.LVL12:
 120              	.L6:
 121              	.LBE4:
  58:main.c        ****     if (adc_count >= points[num_points - 1].adc)
 122              		.loc 1 58 0
 123 007a 0020     		movs	r0, #0
 124 007c 01E0     		b	.L2
 125              	.L7:
  60:main.c        **** 
 126              		.loc 1 60 0
 127 007e 4FF4C870 		mov	r0, #400
 128              	.L2:
  73:main.c        **** }
 129              		.loc 1 73 0
 130 0082 07B0     		add	sp, sp, #28
 131              		.cfi_def_cfa_offset 12
 132              		@ sp needed
 133 0084 70BC     		pop	{r4, r5, r6}
 134              		.cfi_restore 6
 135              		.cfi_restore 5
 136              		.cfi_restore 4
 137              		.cfi_def_cfa_offset 0
 138 0086 7047     		bx	lr
 139              	.L10:
 140              		.align	2
 141              	.L9:
 142 0088 00000000 		.word	.LANCHOR0
 143              		.cfi_endproc
 144              	.LFE65:
 145              		.size	ConvertToGram, .-ConvertToGram
 146              		.section	.text.main,"ax",%progbits
 147              		.align	2
 148              		.global	main
 149              		.thumb
 150              		.thumb_func
 151              		.type	main, %function
ARM GAS  C:\Users\alexa\AppData\Local\Temp\ccGQaR7H.s 			page 5


 152              	main:
 153              	.LFB64:
  20:main.c        ****     char uartBuffer[256];
 154              		.loc 1 20 0
 155              		.cfi_startproc
 156              		@ args = 0, pretend = 0, frame = 256
 157              		@ frame_needed = 0, uses_anonymous_args = 0
 158 0000 10B5     		push	{r4, lr}
 159              		.cfi_def_cfa_offset 8
 160              		.cfi_offset 4, -8
 161              		.cfi_offset 14, -4
 162 0002 C2B0     		sub	sp, sp, #264
 163              		.cfi_def_cfa_offset 272
  23:main.c        ****     ADC_SAR_1_Start();
 164              		.loc 1 23 0
 165 0004 FFF7FEFF 		bl	UART_1_Start
 166              	.LVL13:
  24:main.c        ****     ADC_SAR_1_StartConvert();
 167              		.loc 1 24 0
 168 0008 FFF7FEFF 		bl	ADC_SAR_1_Start
 169              	.LVL14:
  25:main.c        **** 
 170              		.loc 1 25 0
 171 000c FFF7FEFF 		bl	ADC_SAR_1_StartConvert
 172              	.LVL15:
  27:main.c        **** 
 173              		.loc 1 27 0
 174 0010 0D48     		ldr	r0, .L15
 175 0012 FFF7FEFF 		bl	UART_1_PutString
 176              	.LVL16:
 177              	.L13:
  31:main.c        ****         {
 178              		.loc 1 31 0
 179 0016 0020     		movs	r0, #0
 180 0018 FFF7FEFF 		bl	ADC_SAR_1_IsEndConversion
 181              	.LVL17:
 182 001c 80B1     		cbz	r0, .L12
 183              	.LBB5:
  33:main.c        ****             snprintf(uartBuffer, sizeof(uartBuffer), "ADC Count: %d\r\nWeight: %dg\r\n\r\n", result
 184              		.loc 1 33 0
 185 001e FFF7FEFF 		bl	ADC_SAR_1_GetResult16
 186              	.LVL18:
 187 0022 84B2     		uxth	r4, r0
 188              	.LVL19:
  34:main.c        ****             UART_1_PutString(uartBuffer);
 189              		.loc 1 34 0
 190 0024 2046     		mov	r0, r4
 191 0026 FFF7FEFF 		bl	ConvertToGram
 192              	.LVL20:
 193 002a 0090     		str	r0, [sp]
 194 002c 2346     		mov	r3, r4
 195 002e 074A     		ldr	r2, .L15+4
 196 0030 4FF48071 		mov	r1, #256
 197 0034 02A8     		add	r0, sp, #8
 198 0036 FFF7FEFF 		bl	snprintf
 199              	.LVL21:
  35:main.c        ****         }
ARM GAS  C:\Users\alexa\AppData\Local\Temp\ccGQaR7H.s 			page 6


 200              		.loc 1 35 0
 201 003a 02A8     		add	r0, sp, #8
 202 003c FFF7FEFF 		bl	UART_1_PutString
 203              	.LVL22:
 204              	.L12:
 205              	.LBE5:
  37:main.c        ****     }
 206              		.loc 1 37 0
 207 0040 6420     		movs	r0, #100
 208 0042 FFF7FEFF 		bl	CyDelay
 209              	.LVL23:
  38:main.c        **** }
 210              		.loc 1 38 0
 211 0046 E6E7     		b	.L13
 212              	.L16:
 213              		.align	2
 214              	.L15:
 215 0048 00000000 		.word	.LC1
 216 004c 1C000000 		.word	.LC2
 217              		.cfi_endproc
 218              	.LFE64:
 219              		.size	main, .-main
 220              		.section	.rodata
 221              		.align	2
 222              		.set	.LANCHOR0,. + 0
 223              	.LC0:
 224 0000 2401     		.short	292
 225 0002 0000     		.short	0
 226 0004 F401     		.short	500
 227 0006 7400     		.short	116
 228 0008 9702     		.short	663
 229 000a CB00     		.short	203
 230 000c 4A03     		.short	842
 231 000e 2C01     		.short	300
 232 0010 0D04     		.short	1037
 233 0012 9001     		.short	400
 234              		.section	.rodata.str1.4,"aMS",%progbits,1
 235              		.align	2
 236              	.LC1:
 237 0000 5363616C 		.ascii	"Scale application started\015\012\000"
 237      65206170 
 237      706C6963 
 237      6174696F 
 237      6E207374 
 238              	.LC2:
 239 001c 41444320 		.ascii	"ADC Count: %d\015\012Weight: %dg\015\012\015\012\000"
 239      436F756E 
 239      743A2025 
 239      640D0A57 
 239      65696768 
 240              		.text
 241              	.Letext0:
 242              		.file 2 "c:\\program files (x86)\\cypress\\psoc creator\\4.4\\psoc creator\\import\\gnu\\arm\\5.4.
 243              		.file 3 "c:\\program files (x86)\\cypress\\psoc creator\\4.4\\psoc creator\\import\\gnu\\arm\\5.4.
 244              		.file 4 "Generated_Source\\PSoC5/ADC_SAR_1.h"
 245              		.file 5 "c:\\program files (x86)\\cypress\\psoc creator\\4.4\\psoc creator\\import\\gnu\\arm\\5.4.
 246              		.file 6 "Generated_Source\\PSoC5/UART_1.h"
ARM GAS  C:\Users\alexa\AppData\Local\Temp\ccGQaR7H.s 			page 7


 247              		.file 7 "Generated_Source\\PSoC5/CyLib.h"
 248              		.file 8 "Generated_Source\\PSoC5/core_cm3.h"