ARM GAS  C:\Users\alexa\AppData\Local\Temp\ccNOOsfZ.s 			page 1


   1              		.syntax unified
   2              		.cpu cortex-m3
   3              		.fpu softvfp
   4              		.eabi_attribute 20, 1
   5              		.eabi_attribute 21, 1
   6              		.eabi_attribute 23, 3
   7              		.eabi_attribute 24, 1
   8              		.eabi_attribute 25, 1
   9              		.eabi_attribute 26, 1
  10              		.eabi_attribute 30, 1
  11              		.eabi_attribute 34, 1
  12              		.eabi_attribute 18, 4
  13              		.thumb
  14              		.syntax unified
  15              		.file	"ColorSensor.c"
  16              		.text
  17              	.Ltext0:
  18              		.cfi_sections	.debug_frame
  19              		.section	.text.ColorSensor_ReadRegister,"ax",%progbits
  20              		.align	2
  21              		.global	ColorSensor_ReadRegister
  22              		.thumb
  23              		.thumb_func
  24              		.type	ColorSensor_ReadRegister, %function
  25              	ColorSensor_ReadRegister:
  26              	.LFB64:
  27              		.file 1 "ColorSensor.c"
   1:ColorSensor.c **** /*
   2:ColorSensor.c ****     Implementationsfil for TCS37073M
   3:ColorSensor.c ****                                         */
   4:ColorSensor.c **** 
   5:ColorSensor.c **** #include "ColorSensor.h"
   6:ColorSensor.c **** 
   7:ColorSensor.c **** uint8_t address = 0x39; // I2C adresse for farvesensoren
   8:ColorSensor.c **** 
   9:ColorSensor.c **** void ColorSensor_ReadRegister(uint8_t REG, uint8_t dataBytes, uint8_t* bytes) {
  28              		.loc 1 9 0
  29              		.cfi_startproc
  30              		@ args = 0, pretend = 0, frame = 0
  31              		@ frame_needed = 0, uses_anonymous_args = 0
  32              	.LVL0:
  33 0000 F8B5     		push	{r3, r4, r5, r6, r7, lr}
  34              		.cfi_def_cfa_offset 24
  35              		.cfi_offset 3, -24
  36              		.cfi_offset 4, -20
  37              		.cfi_offset 5, -16
  38              		.cfi_offset 6, -12
  39              		.cfi_offset 7, -8
  40              		.cfi_offset 14, -4
  41 0002 0646     		mov	r6, r0
  42 0004 0D46     		mov	r5, r1
  43 0006 1746     		mov	r7, r2
  10:ColorSensor.c ****     I2C_MasterSendStart(address, 0);
  44              		.loc 1 10 0
  45 0008 0F4C     		ldr	r4, .L7
  46 000a 0021     		movs	r1, #0
  47              	.LVL1:
ARM GAS  C:\Users\alexa\AppData\Local\Temp\ccNOOsfZ.s 			page 2


  48 000c 2078     		ldrb	r0, [r4]	@ zero_extendqisi2
  49              	.LVL2:
  50 000e FFF7FEFF 		bl	I2C_MasterSendStart
  51              	.LVL3:
  11:ColorSensor.c ****     I2C_MasterWriteByte(REG); // Register at starte aflæsning ved
  52              		.loc 1 11 0
  53 0012 3046     		mov	r0, r6
  54 0014 FFF7FEFF 		bl	I2C_MasterWriteByte
  55              	.LVL4:
  12:ColorSensor.c ****     I2C_MasterSendRestart(address, 1);
  56              		.loc 1 12 0
  57 0018 0121     		movs	r1, #1
  58 001a 2078     		ldrb	r0, [r4]	@ zero_extendqisi2
  59 001c FFF7FEFF 		bl	I2C_MasterSendRestart
  60              	.LVL5:
  61              	.LBB2:
  13:ColorSensor.c ****     for (uint8_t i = 0; i < dataBytes; ++i) { // Loop for hver efterfølgende byte der skal læses
  62              		.loc 1 13 0
  63 0020 0024     		movs	r4, #0
  64 0022 0BE0     		b	.L2
  65              	.LVL6:
  66              	.L4:
  67              	.LBB3:
  14:ColorSensor.c ****         bool isLastByte = (i == dataBytes - 1); // Sikrer NACK ved sidste byte, i stedet for ACK
  68              		.loc 1 14 0
  69 0024 6B1E     		subs	r3, r5, #1
  15:ColorSensor.c ****         bytes[i] = I2C_MasterReadByte(isLastByte?I2C_NAK_DATA:I2C_ACK_DATA);
  70              		.loc 1 15 0
  71 0026 3E19     		adds	r6, r7, r4
  72 0028 9C42     		cmp	r4, r3
  73 002a 01D1     		bne	.L5
  74 002c 0020     		movs	r0, #0
  75 002e 00E0     		b	.L3
  76              	.L5:
  77 0030 0120     		movs	r0, #1
  78              	.L3:
  79              		.loc 1 15 0 is_stmt 0 discriminator 4
  80 0032 FFF7FEFF 		bl	I2C_MasterReadByte
  81              	.LVL7:
  82 0036 3070     		strb	r0, [r6]
  83              	.LBE3:
  13:ColorSensor.c ****     for (uint8_t i = 0; i < dataBytes; ++i) { // Loop for hver efterfølgende byte der skal læses
  84              		.loc 1 13 0 is_stmt 1 discriminator 4
  85 0038 0134     		adds	r4, r4, #1
  86              	.LVL8:
  87 003a E4B2     		uxtb	r4, r4
  88              	.LVL9:
  89              	.L2:
  13:ColorSensor.c ****     for (uint8_t i = 0; i < dataBytes; ++i) { // Loop for hver efterfølgende byte der skal læses
  90              		.loc 1 13 0 is_stmt 0 discriminator 2
  91 003c AC42     		cmp	r4, r5
  92 003e F1D3     		bcc	.L4
  93              	.LBE2:
  16:ColorSensor.c ****     }
  17:ColorSensor.c ****     I2C_MasterSendStop();
  94              		.loc 1 17 0 is_stmt 1
  95 0040 FFF7FEFF 		bl	I2C_MasterSendStop
ARM GAS  C:\Users\alexa\AppData\Local\Temp\ccNOOsfZ.s 			page 3


  96              	.LVL10:
  97 0044 F8BD     		pop	{r3, r4, r5, r6, r7, pc}
  98              	.LVL11:
  99              	.L8:
 100 0046 00BF     		.align	2
 101              	.L7:
 102 0048 00000000 		.word	.LANCHOR0
 103              		.cfi_endproc
 104              	.LFE64:
 105              		.size	ColorSensor_ReadRegister, .-ColorSensor_ReadRegister
 106              		.section	.text.ColorSensor_WriteRegister,"ax",%progbits
 107              		.align	2
 108              		.global	ColorSensor_WriteRegister
 109              		.thumb
 110              		.thumb_func
 111              		.type	ColorSensor_WriteRegister, %function
 112              	ColorSensor_WriteRegister:
 113              	.LFB65:
  18:ColorSensor.c **** }
  19:ColorSensor.c **** 
  20:ColorSensor.c **** void ColorSensor_WriteRegister(uint8_t REG, uint8_t data) {
 114              		.loc 1 20 0
 115              		.cfi_startproc
 116              		@ args = 0, pretend = 0, frame = 0
 117              		@ frame_needed = 0, uses_anonymous_args = 0
 118              	.LVL12:
 119 0000 38B5     		push	{r3, r4, r5, lr}
 120              		.cfi_def_cfa_offset 16
 121              		.cfi_offset 3, -16
 122              		.cfi_offset 4, -12
 123              		.cfi_offset 5, -8
 124              		.cfi_offset 14, -4
 125 0002 0546     		mov	r5, r0
 126 0004 0C46     		mov	r4, r1
  21:ColorSensor.c ****     I2C_MasterSendStart(address, 0);
 127              		.loc 1 21 0
 128 0006 0021     		movs	r1, #0
 129              	.LVL13:
 130 0008 064B     		ldr	r3, .L11
 131 000a 1878     		ldrb	r0, [r3]	@ zero_extendqisi2
 132              	.LVL14:
 133 000c FFF7FEFF 		bl	I2C_MasterSendStart
 134              	.LVL15:
  22:ColorSensor.c ****     I2C_MasterWriteByte(REG);
 135              		.loc 1 22 0
 136 0010 2846     		mov	r0, r5
 137 0012 FFF7FEFF 		bl	I2C_MasterWriteByte
 138              	.LVL16:
  23:ColorSensor.c ****     I2C_MasterWriteByte(data);
 139              		.loc 1 23 0
 140 0016 2046     		mov	r0, r4
 141 0018 FFF7FEFF 		bl	I2C_MasterWriteByte
 142              	.LVL17:
  24:ColorSensor.c ****     I2C_MasterSendStop();
 143              		.loc 1 24 0
 144 001c FFF7FEFF 		bl	I2C_MasterSendStop
 145              	.LVL18:
ARM GAS  C:\Users\alexa\AppData\Local\Temp\ccNOOsfZ.s 			page 4


 146 0020 38BD     		pop	{r3, r4, r5, pc}
 147              	.L12:
 148 0022 00BF     		.align	2
 149              	.L11:
 150 0024 00000000 		.word	.LANCHOR0
 151              		.cfi_endproc
 152              	.LFE65:
 153              		.size	ColorSensor_WriteRegister, .-ColorSensor_WriteRegister
 154              		.section	.text.ColorSensor_ReadColorData,"ax",%progbits
 155              		.align	2
 156              		.global	ColorSensor_ReadColorData
 157              		.thumb
 158              		.thumb_func
 159              		.type	ColorSensor_ReadColorData, %function
 160              	ColorSensor_ReadColorData:
 161              	.LFB66:
  25:ColorSensor.c **** }
  26:ColorSensor.c **** 
  27:ColorSensor.c **** void ColorSensor_ReadColorData(uint16_t* colorData) {
 162              		.loc 1 27 0
 163              		.cfi_startproc
 164              		@ args = 0, pretend = 0, frame = 16
 165              		@ frame_needed = 0, uses_anonymous_args = 0
 166              	.LVL19:
 167 0000 10B5     		push	{r4, lr}
 168              		.cfi_def_cfa_offset 8
 169              		.cfi_offset 4, -8
 170              		.cfi_offset 14, -4
 171 0002 84B0     		sub	sp, sp, #16
 172              		.cfi_def_cfa_offset 24
 173 0004 0446     		mov	r4, r0
 174              	.LVL20:
  28:ColorSensor.c ****     uint8_t dataBytes = DATA_REG_END_ADDR - DATA_REG_START_ADDR; // Antal af bytes at læse i ALS d
  29:ColorSensor.c ****     uint8_t data[dataBytes];
  30:ColorSensor.c ****     
  31:ColorSensor.c ****     ColorSensor_ReadRegister(DATA_REG_START_ADDR, dataBytes, data);
 175              		.loc 1 31 0
 176 0006 01AA     		add	r2, sp, #4
 177              	.LVL21:
 178 0008 0B21     		movs	r1, #11
 179 000a 9520     		movs	r0, #149
 180              	.LVL22:
 181 000c FFF7FEFF 		bl	ColorSensor_ReadRegister
 182              	.LVL23:
  32:ColorSensor.c ****     
  33:ColorSensor.c ****     uint16_t red = (data[3] << 8) + data[2];    // Rød (0x97 - 0x98)
 183              		.loc 1 33 0
 184 0010 9DF80710 		ldrb	r1, [sp, #7]	@ zero_extendqisi2
 185 0014 9DF80630 		ldrb	r3, [sp, #6]	@ zero_extendqisi2
 186 0018 03EB0121 		add	r1, r3, r1, lsl #8
 187              	.LVL24:
  34:ColorSensor.c ****     uint16_t green = (data[5] << 8) + data[4];  // Grøn (0x99 - 0x9A)
 188              		.loc 1 34 0
 189 001c 9DF80920 		ldrb	r2, [sp, #9]	@ zero_extendqisi2
 190 0020 9DF80830 		ldrb	r3, [sp, #8]	@ zero_extendqisi2
 191 0024 03EB0222 		add	r2, r3, r2, lsl #8
 192              	.LVL25:
ARM GAS  C:\Users\alexa\AppData\Local\Temp\ccNOOsfZ.s 			page 5


  35:ColorSensor.c ****     uint16_t blue = (data[7] << 8) + data[6];   // Blå (0x9B - 0x9C)
 193              		.loc 1 35 0
 194 0028 9DF80B00 		ldrb	r0, [sp, #11]	@ zero_extendqisi2
 195 002c 9DF80A30 		ldrb	r3, [sp, #10]	@ zero_extendqisi2
 196 0030 03EB0023 		add	r3, r3, r0, lsl #8
 197              	.LVL26:
  36:ColorSensor.c ****     
  37:ColorSensor.c ****     colorData[0] = red;
 198              		.loc 1 37 0
 199 0034 2180     		strh	r1, [r4]	@ movhi
  38:ColorSensor.c ****     colorData[1] = green;
 200              		.loc 1 38 0
 201 0036 6280     		strh	r2, [r4, #2]	@ movhi
  39:ColorSensor.c ****     colorData[2] = blue;
 202              		.loc 1 39 0
 203 0038 A380     		strh	r3, [r4, #4]	@ movhi
  40:ColorSensor.c **** }
 204              		.loc 1 40 0
 205 003a 04B0     		add	sp, sp, #16
 206              		.cfi_def_cfa_offset 8
 207              		@ sp needed
 208 003c 10BD     		pop	{r4, pc}
 209              		.cfi_endproc
 210              	.LFE66:
 211              		.size	ColorSensor_ReadColorData, .-ColorSensor_ReadColorData
 212 003e 00BF     		.section	.text.ColorSensor_Initialize,"ax",%progbits
 213              		.align	2
 214              		.global	ColorSensor_Initialize
 215              		.thumb
 216              		.thumb_func
 217              		.type	ColorSensor_Initialize, %function
 218              	ColorSensor_Initialize:
 219              	.LFB67:
  41:ColorSensor.c **** 
  42:ColorSensor.c **** void ColorSensor_Initialize() {
 220              		.loc 1 42 0
 221              		.cfi_startproc
 222              		@ args = 0, pretend = 0, frame = 0
 223              		@ frame_needed = 0, uses_anonymous_args = 0
 224 0000 08B5     		push	{r3, lr}
 225              		.cfi_def_cfa_offset 8
 226              		.cfi_offset 3, -8
 227              		.cfi_offset 14, -4
  43:ColorSensor.c ****     ColorSensor_WriteRegister(0x80, 0b00000011); // Enable AEN & PON bits
 228              		.loc 1 43 0
 229 0002 0321     		movs	r1, #3
 230 0004 8020     		movs	r0, #128
 231 0006 FFF7FEFF 		bl	ColorSensor_WriteRegister
 232              	.LVL27:
 233 000a 08BD     		pop	{r3, pc}
 234              		.cfi_endproc
 235              	.LFE67:
 236              		.size	ColorSensor_Initialize, .-ColorSensor_Initialize
 237              		.global	address
 238              		.data
 239              		.set	.LANCHOR0,. + 0
 240              		.type	address, %object
ARM GAS  C:\Users\alexa\AppData\Local\Temp\ccNOOsfZ.s 			page 6


 241              		.size	address, 1
 242              	address:
 243 0000 39       		.byte	57
 244              		.text
 245              	.Letext0:
 246              		.file 2 "c:\\program files (x86)\\cypress\\psoc creator\\4.4\\psoc creator\\import\\gnu\\arm\\5.4.
 247              		.file 3 "c:\\program files (x86)\\cypress\\psoc creator\\4.4\\psoc creator\\import\\gnu\\arm\\5.4.
 248              		.file 4 "Generated_Source\\PSoC5/core_cm3.h"
 249              		.file 5 "Generated_Source\\PSoC5/I2C.h"