ARM GAS  C:\Users\alexa\AppData\Local\Temp\ccs0DobP.s 			page 1


   1              		.syntax unified
   2              		.cpu cortex-m3
   3              		.fpu softvfp
   4              		.eabi_attribute 20, 1
   5              		.eabi_attribute 21, 1
   6              		.eabi_attribute 23, 3
   7              		.eabi_attribute 24, 1
   8              		.eabi_attribute 25, 1
   9              		.eabi_attribute 26, 1
  10              		.eabi_attribute 30, 1
  11              		.eabi_attribute 34, 1
  12              		.eabi_attribute 18, 4
  13              		.thumb
  14              		.syntax unified
  15              		.file	"main.c"
  16              		.text
  17              	.Ltext0:
  18              		.cfi_sections	.debug_frame
  19              		.section	.text.main,"ax",%progbits
  20              		.align	2
  21              		.global	main
  22              		.thumb
  23              		.thumb_func
  24              		.type	main, %function
  25              	main:
  26              	.LFB64:
  27              		.file 1 "main.c"
   1:main.c        **** #include "project.h"
   2:main.c        **** 
   3:main.c        **** #include <stdio.h>
   4:main.c        **** #include <stdlib.h>
   5:main.c        **** #include <string.h>
   6:main.c        **** 
   7:main.c        **** CY_ISR_PROTO(UART_USB_RX_ISR_handler);
   8:main.c        **** CY_ISR_PROTO(UART_PI_RX_ISR_handler);
   9:main.c        **** void HandleStringReceived(char* stringReceived);
  10:main.c        **** 
  11:main.c        **** #define MAX_MSG_BUFFER_SIZE 128 // Maksimal størrelse af besked der kan printes (bytes)
  12:main.c        **** #define MAX_PARAMS 2 // Maksimalt antal af parametre til en funktion (2 er fint i vores tilfælde)
  13:main.c        **** 
  14:main.c        **** int main(void)
  15:main.c        **** {
  28              		.loc 1 15 0
  29              		.cfi_startproc
  30              		@ Volatile: function does not return.
  31              		@ args = 0, pretend = 0, frame = 0
  32              		@ frame_needed = 0, uses_anonymous_args = 0
  33 0000 08B5     		push	{r3, lr}
  34              		.cfi_def_cfa_offset 8
  35              		.cfi_offset 3, -8
  36              		.cfi_offset 14, -4
  16:main.c        ****     CyGlobalIntEnable;
  37              		.loc 1 16 0
  38              		.syntax unified
  39              	@ 16 "main.c" 1
  40 0002 62B6     		CPSIE   i
  41              	@ 0 "" 2
ARM GAS  C:\Users\alexa\AppData\Local\Temp\ccs0DobP.s 			page 2


  17:main.c        ****     UART_USB_RX_ISR_StartEx(UART_USB_RX_ISR_handler);
  42              		.loc 1 17 0
  43              		.thumb
  44              		.syntax unified
  45 0004 0548     		ldr	r0, .L4
  46 0006 FFF7FEFF 		bl	UART_USB_RX_ISR_StartEx
  47              	.LVL0:
  18:main.c        ****     UART_PI_RX_ISR_StartEx(UART_PI_RX_ISR_handler);
  48              		.loc 1 18 0
  49 000a 0548     		ldr	r0, .L4+4
  50 000c FFF7FEFF 		bl	UART_PI_RX_ISR_StartEx
  51              	.LVL1:
  19:main.c        ****     UART_USB_Start();
  52              		.loc 1 19 0
  53 0010 FFF7FEFF 		bl	UART_USB_Start
  54              	.LVL2:
  20:main.c        ****     UART_PI_Start();
  55              		.loc 1 20 0
  56 0014 FFF7FEFF 		bl	UART_PI_Start
  57              	.LVL3:
  58              	.L2:
  59 0018 FEE7     		b	.L2
  60              	.L5:
  61 001a 00BF     		.align	2
  62              	.L4:
  63 001c 00000000 		.word	UART_USB_RX_ISR_handler
  64 0020 00000000 		.word	UART_PI_RX_ISR_handler
  65              		.cfi_endproc
  66              	.LFE64:
  67              		.size	main, .-main
  68              		.section	.text.HandleStringReceived,"ax",%progbits
  69              		.align	2
  70              		.global	HandleStringReceived
  71              		.thumb
  72              		.thumb_func
  73              		.type	HandleStringReceived, %function
  74              	HandleStringReceived:
  75              	.LFB67:
  21:main.c        **** 
  22:main.c        ****     for(;;)
  23:main.c        ****     {
  24:main.c        ****         
  25:main.c        ****     }
  26:main.c        **** }
  27:main.c        **** 
  28:main.c        **** /* UART Interrupt, sker ved modtagelse af seriel data fra USB */
  29:main.c        **** CY_ISR(UART_USB_RX_ISR_handler)
  30:main.c        **** {
  31:main.c        ****     static char UART_USB_rx_buf[MAX_MSG_BUFFER_SIZE] = {0};
  32:main.c        ****     static uint8_t buf_index = 0;
  33:main.c        **** 
  34:main.c        ****     while (UART_USB_GetRxBufferSize() > 0) {
  35:main.c        ****         uint8_t byteReceived = UART_USB_ReadRxData();
  36:main.c        ****         
  37:main.c        ****         // Ignorér ekstra 'linebreaks' som kan føre til ekstra kald
  38:main.c        ****         if (byteReceived == '\n' && buf_index == 0) continue;
  39:main.c        **** 
ARM GAS  C:\Users\alexa\AppData\Local\Temp\ccs0DobP.s 			page 3


  40:main.c        ****         // Gem karakter i buffer, hvis den ikke er fyldt
  41:main.c        ****         if (buf_index < MAX_MSG_BUFFER_SIZE - 1) {
  42:main.c        ****             UART_USB_rx_buf[buf_index++] = byteReceived;
  43:main.c        ****         }
  44:main.c        **** 
  45:main.c        ****         // Check for slutning af besked
  46:main.c        ****         if (byteReceived == '\n' || byteReceived == '\r') {
  47:main.c        ****             UART_USB_rx_buf[buf_index] = '\0'; // Null-terminering
  48:main.c        ****             HandleStringReceived(UART_USB_rx_buf);
  49:main.c        ****             buf_index = 0;
  50:main.c        ****             break;
  51:main.c        ****         }
  52:main.c        ****     }
  53:main.c        **** }
  54:main.c        **** 
  55:main.c        **** /* UART Interrupt, sker ved modtagelse af seriel data fra Raspberry Pi */
  56:main.c        **** CY_ISR(UART_PI_RX_ISR_handler)
  57:main.c        **** {
  58:main.c        ****     static char UART_PI_rx_buf[MAX_MSG_BUFFER_SIZE] = {0};
  59:main.c        ****     static uint8_t buf_index = 0;
  60:main.c        **** 
  61:main.c        ****     while (UART_PI_GetRxBufferSize() > 0) {
  62:main.c        ****         uint8_t byteReceived = UART_PI_ReadRxData();
  63:main.c        ****         
  64:main.c        ****         // Ignorér ekstra 'linebreaks' som kan føre til ekstra kald
  65:main.c        ****         if (byteReceived == '\n' && buf_index == 0) continue;
  66:main.c        **** 
  67:main.c        ****         // Gem karakter i buffer, hvis den ikke er fyldt
  68:main.c        ****         if (buf_index < MAX_MSG_BUFFER_SIZE - 1) {
  69:main.c        ****             UART_PI_rx_buf[buf_index++] = byteReceived;
  70:main.c        ****         }
  71:main.c        **** 
  72:main.c        ****         // Check for slutning af besked
  73:main.c        ****         if (byteReceived == '\n' || byteReceived == '\r') {
  74:main.c        ****             UART_PI_rx_buf[buf_index] = '\0'; // Null-terminering
  75:main.c        ****             HandleStringReceived(UART_PI_rx_buf);
  76:main.c        ****             buf_index = 0;
  77:main.c        ****             break;
  78:main.c        ****         }
  79:main.c        ****     }
  80:main.c        **** }
  81:main.c        **** 
  82:main.c        **** /* Håndtering af data fra UART */
  83:main.c        **** void HandleStringReceived(char* receivedString)
  84:main.c        **** {
  76              		.loc 1 84 0
  77              		.cfi_startproc
  78              		@ args = 0, pretend = 0, frame = 128
  79              		@ frame_needed = 0, uses_anonymous_args = 0
  80              	.LVL4:
  81 0000 30B5     		push	{r4, r5, lr}
  82              		.cfi_def_cfa_offset 12
  83              		.cfi_offset 4, -12
  84              		.cfi_offset 5, -8
  85              		.cfi_offset 14, -4
  86 0002 A1B0     		sub	sp, sp, #132
  87              		.cfi_def_cfa_offset 144
ARM GAS  C:\Users\alexa\AppData\Local\Temp\ccs0DobP.s 			page 4


  88              	.LVL5:
  85:main.c        ****     char msg[MAX_MSG_BUFFER_SIZE];
  86:main.c        ****     
  87:main.c        ****     int i = 0;
  88:main.c        ****     char* token = strtok(receivedString, "\r\n ");
  89              		.loc 1 88 0
  90 0004 194D     		ldr	r5, .L14
  91 0006 2946     		mov	r1, r5
  92 0008 FFF7FEFF 		bl	strtok
  93              	.LVL6:
  94 000c 0446     		mov	r4, r0
  95              	.LVL7:
  89:main.c        ****     char* params[MAX_PARAMS]; // Er pt. ubrugt: Årsag til warning
  90:main.c        ****     
  91:main.c        ****     char* command = token;
  92:main.c        ****     token = strtok(NULL, "\r\n ");
  96              		.loc 1 92 0
  97 000e 2946     		mov	r1, r5
  98 0010 0020     		movs	r0, #0
  99              	.LVL8:
 100 0012 FFF7FEFF 		bl	strtok
 101              	.LVL9:
  93:main.c        ****     while (token != NULL)
 102              		.loc 1 93 0
 103 0016 03E0     		b	.L7
 104              	.LVL10:
 105              	.L8:
  94:main.c        ****     {
  95:main.c        ****         params[i++] = token;
  96:main.c        ****         token = strtok(NULL, "\r\n ");
 106              		.loc 1 96 0
 107 0018 1449     		ldr	r1, .L14
 108 001a 0020     		movs	r0, #0
 109              	.LVL11:
 110 001c FFF7FEFF 		bl	strtok
 111              	.LVL12:
 112              	.L7:
  93:main.c        ****     while (token != NULL)
 113              		.loc 1 93 0
 114 0020 0028     		cmp	r0, #0
 115 0022 F9D1     		bne	.L8
  97:main.c        ****     }
  98:main.c        ****     
  99:main.c        ****     snprintf(msg, MAX_MSG_BUFFER_SIZE, "Received command: %s\r\n", command);
 116              		.loc 1 99 0
 117 0024 2346     		mov	r3, r4
 118 0026 124A     		ldr	r2, .L14+4
 119 0028 8021     		movs	r1, #128
 120 002a 6846     		mov	r0, sp
 121              	.LVL13:
 122 002c FFF7FEFF 		bl	snprintf
 123              	.LVL14:
 100:main.c        ****     
 101:main.c        ****     if (command == NULL) return;
 124              		.loc 1 101 0
 125 0030 CCB1     		cbz	r4, .L6
 102:main.c        **** 
ARM GAS  C:\Users\alexa\AppData\Local\Temp\ccs0DobP.s 			page 5


 103:main.c        ****     if (strcmp(command, "test1") == 0) {
 126              		.loc 1 103 0
 127 0032 1049     		ldr	r1, .L14+8
 128 0034 2046     		mov	r0, r4
 129 0036 FFF7FEFF 		bl	strcmp
 130              	.LVL15:
 131 003a 30B9     		cbnz	r0, .L10
 104:main.c        ****         UART_USB_PutString("Running function test1\r\n");
 132              		.loc 1 104 0
 133 003c 0E48     		ldr	r0, .L14+12
 134 003e FFF7FEFF 		bl	UART_USB_PutString
 135              	.LVL16:
 105:main.c        ****         LED_BUILTIN_Write(1);
 136              		.loc 1 105 0
 137 0042 0120     		movs	r0, #1
 138 0044 FFF7FEFF 		bl	LED_BUILTIN_Write
 139              	.LVL17:
 140 0048 0AE0     		b	.L11
 141              	.L10:
 106:main.c        ****     }
 107:main.c        ****     else if (strcmp(command, "test2") == 0) {
 142              		.loc 1 107 0
 143 004a 0C49     		ldr	r1, .L14+16
 144 004c 2046     		mov	r0, r4
 145 004e FFF7FEFF 		bl	strcmp
 146              	.LVL18:
 147 0052 28B9     		cbnz	r0, .L11
 108:main.c        ****         UART_USB_PutString("Running function test2\r\n");
 148              		.loc 1 108 0
 149 0054 0A48     		ldr	r0, .L14+20
 150 0056 FFF7FEFF 		bl	UART_USB_PutString
 151              	.LVL19:
 109:main.c        ****         LED_BUILTIN_Write(0);
 152              		.loc 1 109 0
 153 005a 0020     		movs	r0, #0
 154 005c FFF7FEFF 		bl	LED_BUILTIN_Write
 155              	.LVL20:
 156              	.L11:
 110:main.c        ****     }
 111:main.c        ****     
 112:main.c        ****     UART_USB_PutString(msg);
 157              		.loc 1 112 0
 158 0060 6846     		mov	r0, sp
 159 0062 FFF7FEFF 		bl	UART_USB_PutString
 160              	.LVL21:
 161              	.L6:
 113:main.c        **** }...
 162              		.loc 1 113 0
 163 0066 21B0     		add	sp, sp, #132
 164              		.cfi_def_cfa_offset 12
 165              		@ sp needed
 166 0068 30BD     		pop	{r4, r5, pc}
 167              	.LVL22:
 168              	.L15:
 169 006a 00BF     		.align	2
 170              	.L14:
 171 006c 00000000 		.word	.LC0
ARM GAS  C:\Users\alexa\AppData\Local\Temp\ccs0DobP.s 			page 6


 172 0070 04000000 		.word	.LC1
 173 0074 1C000000 		.word	.LC2
 174 0078 24000000 		.word	.LC3
 175 007c 40000000 		.word	.LC4
 176 0080 48000000 		.word	.LC5
 177              		.cfi_endproc
 178              	.LFE67:
 179              		.size	HandleStringReceived, .-HandleStringReceived
 180              		.section	.text.UART_USB_RX_ISR_handler,"ax",%progbits
 181              		.align	2
 182              		.global	UART_USB_RX_ISR_handler
 183              		.thumb
 184              		.thumb_func
 185              		.type	UART_USB_RX_ISR_handler, %function
 186              	UART_USB_RX_ISR_handler:
 187              	.LFB65:
  30:main.c        **** {
 188              		.loc 1 30 0
 189              		.cfi_startproc
 190              		@ args = 0, pretend = 0, frame = 0
 191              		@ frame_needed = 0, uses_anonymous_args = 0
 192 0000 38B5     		push	{r3, r4, r5, lr}
 193              		.cfi_def_cfa_offset 16
 194              		.cfi_offset 3, -16
 195              		.cfi_offset 4, -12
 196              		.cfi_offset 5, -8
 197              		.cfi_offset 14, -4
  34:main.c        ****     while (UART_USB_GetRxBufferSize() > 0) {
 198              		.loc 1 34 0
 199 0002 1DE0     		b	.L17
 200              	.L23:
 201              	.LBB2:
  35:main.c        ****         uint8_t byteReceived = UART_USB_ReadRxData();
 202              		.loc 1 35 0
 203 0004 FFF7FEFF 		bl	UART_USB_ReadRxData
 204              	.LVL23:
  38:main.c        ****         if (byteReceived == '\n' && buf_index == 0) continue;
 205              		.loc 1 38 0
 206 0008 0A28     		cmp	r0, #10
 207 000a 02D1     		bne	.L18
  38:main.c        ****         if (byteReceived == '\n' && buf_index == 0) continue;
 208              		.loc 1 38 0 is_stmt 0 discriminator 1
 209 000c 0F4B     		ldr	r3, .L25
 210 000e 1B78     		ldrb	r3, [r3]	@ zero_extendqisi2
 211 0010 B3B1     		cbz	r3, .L17
 212              	.L18:
  41:main.c        ****         if (buf_index < MAX_MSG_BUFFER_SIZE - 1) {
 213              		.loc 1 41 0 is_stmt 1
 214 0012 0E4B     		ldr	r3, .L25
 215 0014 1B78     		ldrb	r3, [r3]	@ zero_extendqisi2
 216 0016 7E2B     		cmp	r3, #126
 217 0018 04D8     		bhi	.L20
  42:main.c        ****             UART_USB_rx_buf[buf_index++] = byteReceived;
 218              		.loc 1 42 0
 219 001a 0C4A     		ldr	r2, .L25
 220 001c 591C     		adds	r1, r3, #1
 221 001e 1170     		strb	r1, [r2]
ARM GAS  C:\Users\alexa\AppData\Local\Temp\ccs0DobP.s 			page 7


 222 0020 1344     		add	r3, r3, r2
 223 0022 1871     		strb	r0, [r3, #4]
 224              	.L20:
  46:main.c        ****         if (byteReceived == '\n' || byteReceived == '\r') {
 225              		.loc 1 46 0
 226 0024 0A28     		cmp	r0, #10
 227 0026 01D0     		beq	.L21
  46:main.c        ****         if (byteReceived == '\n' || byteReceived == '\r') {
 228              		.loc 1 46 0 is_stmt 0 discriminator 1
 229 0028 0D28     		cmp	r0, #13
 230 002a 09D1     		bne	.L17
 231              	.L21:
  47:main.c        ****             UART_USB_rx_buf[buf_index] = '\0'; // Null-terminering
 232              		.loc 1 47 0 is_stmt 1
 233 002c 074C     		ldr	r4, .L25
 234 002e 2378     		ldrb	r3, [r4]	@ zero_extendqisi2
 235 0030 2344     		add	r3, r3, r4
 236 0032 0025     		movs	r5, #0
 237 0034 1D71     		strb	r5, [r3, #4]
  48:main.c        ****             HandleStringReceived(UART_USB_rx_buf);
 238              		.loc 1 48 0
 239 0036 201D     		adds	r0, r4, #4
 240              	.LVL24:
 241 0038 FFF7FEFF 		bl	HandleStringReceived
 242              	.LVL25:
  49:main.c        ****             buf_index = 0;
 243              		.loc 1 49 0
 244 003c 2570     		strb	r5, [r4]
  50:main.c        ****             break;
 245              		.loc 1 50 0
 246 003e 38BD     		pop	{r3, r4, r5, pc}
 247              	.L17:
 248              	.LBE2:
  34:main.c        ****     while (UART_USB_GetRxBufferSize() > 0) {
 249              		.loc 1 34 0
 250 0040 FFF7FEFF 		bl	UART_USB_GetRxBufferSize
 251              	.LVL26:
 252 0044 0028     		cmp	r0, #0
 253 0046 DDD1     		bne	.L23
 254 0048 38BD     		pop	{r3, r4, r5, pc}
 255              	.L26:
 256 004a 00BF     		.align	2
 257              	.L25:
 258 004c 00000000 		.word	.LANCHOR0
 259              		.cfi_endproc
 260              	.LFE65:
 261              		.size	UART_USB_RX_ISR_handler, .-UART_USB_RX_ISR_handler
 262              		.section	.text.UART_PI_RX_ISR_handler,"ax",%progbits
 263              		.align	2
 264              		.global	UART_PI_RX_ISR_handler
 265              		.thumb
 266              		.thumb_func
 267              		.type	UART_PI_RX_ISR_handler, %function
 268              	UART_PI_RX_ISR_handler:
 269              	.LFB66:
  57:main.c        **** {
 270              		.loc 1 57 0
ARM GAS  C:\Users\alexa\AppData\Local\Temp\ccs0DobP.s 			page 8


 271              		.cfi_startproc
 272              		@ args = 0, pretend = 0, frame = 0
 273              		@ frame_needed = 0, uses_anonymous_args = 0
 274 0000 38B5     		push	{r3, r4, r5, lr}
 275              		.cfi_def_cfa_offset 16
 276              		.cfi_offset 3, -16
 277              		.cfi_offset 4, -12
 278              		.cfi_offset 5, -8
 279              		.cfi_offset 14, -4
  61:main.c        ****     while (UART_PI_GetRxBufferSize() > 0) {
 280              		.loc 1 61 0
 281 0002 25E0     		b	.L28
 282              	.L34:
 283              	.LBB3:
  62:main.c        ****         uint8_t byteReceived = UART_PI_ReadRxData();
 284              		.loc 1 62 0
 285 0004 FFF7FEFF 		bl	UART_PI_ReadRxData
 286              	.LVL27:
  65:main.c        ****         if (byteReceived == '\n' && buf_index == 0) continue;
 287              		.loc 1 65 0
 288 0008 0A28     		cmp	r0, #10
 289 000a 03D1     		bne	.L29
  65:main.c        ****         if (byteReceived == '\n' && buf_index == 0) continue;
 290              		.loc 1 65 0 is_stmt 0 discriminator 1
 291 000c 134B     		ldr	r3, .L36
 292 000e 93F88430 		ldrb	r3, [r3, #132]	@ zero_extendqisi2
 293 0012 EBB1     		cbz	r3, .L28
 294              	.L29:
  68:main.c        ****         if (buf_index < MAX_MSG_BUFFER_SIZE - 1) {
 295              		.loc 1 68 0 is_stmt 1
 296 0014 114B     		ldr	r3, .L36
 297 0016 93F88430 		ldrb	r3, [r3, #132]	@ zero_extendqisi2
 298 001a 7E2B     		cmp	r3, #126
 299 001c 06D8     		bhi	.L31
  69:main.c        ****             UART_PI_rx_buf[buf_index++] = byteReceived;
 300              		.loc 1 69 0
 301 001e 0F4A     		ldr	r2, .L36
 302 0020 591C     		adds	r1, r3, #1
 303 0022 82F88410 		strb	r1, [r2, #132]
 304 0026 1344     		add	r3, r3, r2
 305 0028 83F88800 		strb	r0, [r3, #136]
 306              	.L31:
  73:main.c        ****         if (byteReceived == '\n' || byteReceived == '\r') {
 307              		.loc 1 73 0
 308 002c 0A28     		cmp	r0, #10
 309 002e 01D0     		beq	.L32
  73:main.c        ****         if (byteReceived == '\n' || byteReceived == '\r') {
 310              		.loc 1 73 0 is_stmt 0 discriminator 1
 311 0030 0D28     		cmp	r0, #13
 312 0032 0DD1     		bne	.L28
 313              	.L32:
  74:main.c        ****             UART_PI_rx_buf[buf_index] = '\0'; // Null-terminering
 314              		.loc 1 74 0 is_stmt 1
 315 0034 094C     		ldr	r4, .L36
 316 0036 94F88430 		ldrb	r3, [r4, #132]	@ zero_extendqisi2
 317 003a 2344     		add	r3, r3, r4
 318 003c 0025     		movs	r5, #0
ARM GAS  C:\Users\alexa\AppData\Local\Temp\ccs0DobP.s 			page 9


 319 003e 83F88850 		strb	r5, [r3, #136]
  75:main.c        ****             HandleStringReceived(UART_PI_rx_buf);
 320              		.loc 1 75 0
 321 0042 04F18800 		add	r0, r4, #136
 322              	.LVL28:
 323 0046 FFF7FEFF 		bl	HandleStringReceived
 324              	.LVL29:
  76:main.c        ****             buf_index = 0;
 325              		.loc 1 76 0
 326 004a 84F88450 		strb	r5, [r4, #132]
  77:main.c        ****             break;
 327              		.loc 1 77 0
 328 004e 38BD     		pop	{r3, r4, r5, pc}
 329              	.L28:
 330              	.LBE3:
  61:main.c        ****     while (UART_PI_GetRxBufferSize() > 0) {
 331              		.loc 1 61 0
 332 0050 FFF7FEFF 		bl	UART_PI_GetRxBufferSize
 333              	.LVL30:
 334 0054 0028     		cmp	r0, #0
 335 0056 D5D1     		bne	.L34
 336 0058 38BD     		pop	{r3, r4, r5, pc}
 337              	.L37:
 338 005a 00BF     		.align	2
 339              	.L36:
 340 005c 00000000 		.word	.LANCHOR0
 341              		.cfi_endproc
 342              	.LFE66:
 343              		.size	UART_PI_RX_ISR_handler, .-UART_PI_RX_ISR_handler
 344              		.section	.rodata.str1.4,"aMS",%progbits,1
 345              		.align	2
 346              	.LC0:
 347 0000 0D0A2000 		.ascii	"\015\012 \000"
 348              	.LC1:
 349 0004 52656365 		.ascii	"Received command: %s\015\012\000"
 349      69766564 
 349      20636F6D 
 349      6D616E64 
 349      3A202573 
 350 001b 00       		.space	1
 351              	.LC2:
 352 001c 74657374 		.ascii	"test1\000"
 352      3100
 353 0022 0000     		.space	2
 354              	.LC3:
 355 0024 52756E6E 		.ascii	"Running function test1\015\012\000"
 355      696E6720 
 355      66756E63 
 355      74696F6E 
 355      20746573 
 356 003d 000000   		.space	3
 357              	.LC4:
 358 0040 74657374 		.ascii	"test2\000"
 358      3200
 359 0046 0000     		.space	2
 360              	.LC5:
 361 0048 52756E6E 		.ascii	"Running function test2\015\012\000"
ARM GAS  C:\Users\alexa\AppData\Local\Temp\ccs0DobP.s 			page 10


 361      696E6720 
 361      66756E63 
 361      74696F6E 
 361      20746573 
 362              		.bss
 363              		.align	2
 364              		.set	.LANCHOR0,. + 0
 365              		.type	buf_index.7105, %object
 366              		.size	buf_index.7105, 1
 367              	buf_index.7105:
 368 0000 00       		.space	1
 369 0001 000000   		.space	3
 370              		.type	UART_USB_rx_buf.7104, %object
 371              		.size	UART_USB_rx_buf.7104, 128
 372              	UART_USB_rx_buf.7104:
 373 0004 00000000 		.space	128
 373      00000000 
 373      00000000 
 373      00000000 
 373      00000000 
 374              		.type	buf_index.7114, %object
 375              		.size	buf_index.7114, 1
 376              	buf_index.7114:
 377 0084 00       		.space	1
 378 0085 000000   		.space	3
 379              		.type	UART_PI_rx_buf.7113, %object
 380              		.size	UART_PI_rx_buf.7113, 128
 381              	UART_PI_rx_buf.7113:
 382 0088 00000000 		.space	128
 382      00000000 
 382      00000000 
 382      00000000 
 382      00000000 
 383              		.text
 384              	.Letext0:
 385              		.file 2 "c:\\program files (x86)\\cypress\\psoc creator\\4.4\\psoc creator\\import\\gnu\\arm\\5.4.
 386              		.file 3 "c:\\program files (x86)\\cypress\\psoc creator\\4.4\\psoc creator\\import\\gnu\\arm\\5.4.
 387              		.file 4 "Generated_Source\\PSoC5/UART_USB_RX_ISR.h"
 388              		.file 5 "Generated_Source\\PSoC5/UART_PI_RX_ISR.h"
 389              		.file 6 "Generated_Source\\PSoC5/UART_USB.h"
 390              		.file 7 "Generated_Source\\PSoC5/UART_PI.h"
 391              		.file 8 "c:\\program files (x86)\\cypress\\psoc creator\\4.4\\psoc creator\\import\\gnu\\arm\\5.4.
 392              		.file 9 "c:\\program files (x86)\\cypress\\psoc creator\\4.4\\psoc creator\\import\\gnu\\arm\\5.4.
 393              		.file 10 "Generated_Source\\PSoC5/LED_BUILTIN.h"
 394              		.file 11 "Generated_Source\\PSoC5/core_cm3.h"