ARM GAS  C:\Users\alexa\AppData\Local\Temp\ccrau85Q.s 			page 1


   1              		.syntax unified
   2              		.cpu cortex-m3
   3              		.fpu softvfp
   4              		.eabi_attribute 20, 1
   5              		.eabi_attribute 21, 1
   6              		.eabi_attribute 23, 3
   7              		.eabi_attribute 24, 1
   8              		.eabi_attribute 25, 1
   9              		.eabi_attribute 26, 1
  10              		.eabi_attribute 30, 1
  11              		.eabi_attribute 34, 1
  12              		.eabi_attribute 18, 4
  13              		.thumb
  14              		.syntax unified
  15              		.file	"Motor.c"
  16              		.text
  17              	.Ltext0:
  18              		.cfi_sections	.debug_frame
  19              		.section	.text.SetStators,"ax",%progbits
  20              		.align	2
  21              		.global	SetStators
  22              		.thumb
  23              		.thumb_func
  24              		.type	SetStators, %function
  25              	SetStators:
  26              	.LFB64:
  27              		.file 1 "Motor.c"
   1:Motor.c       **** #include "project.h"
   2:Motor.c       **** #include "Motor.h"
   3:Motor.c       **** 
   4:Motor.c       **** #include <stdio.h>
   5:Motor.c       **** #include <stdbool.h>
   6:Motor.c       **** #include <stdlib.h>
   7:Motor.c       **** 
   8:Motor.c       **** const uint8_t FULL_DRIVE_SEQUENCE[4][4] = {
   9:Motor.c       ****     {1, 1, 0, 0},
  10:Motor.c       ****     {0, 1, 1, 0},
  11:Motor.c       ****     {0, 0, 1, 1},
  12:Motor.c       ****     {1, 0, 0, 1}
  13:Motor.c       **** };
  14:Motor.c       **** const uint8_t STOPPED_DRIVE[4] = {0, 0, 0, 0};
  15:Motor.c       **** 
  16:Motor.c       **** static uint8_t currentStep = 0; // 0 - 47 (0° - 352.5°)
  17:Motor.c       **** 
  18:Motor.c       **** // Sætter tilstande af statore
  19:Motor.c       **** void SetStators(const uint8_t states[4]) {
  28              		.loc 1 19 0
  29              		.cfi_startproc
  30              		@ args = 0, pretend = 0, frame = 0
  31              		@ frame_needed = 0, uses_anonymous_args = 0
  32              	.LVL0:
  33 0000 10B5     		push	{r4, lr}
  34              		.cfi_def_cfa_offset 8
  35              		.cfi_offset 4, -8
  36              		.cfi_offset 14, -4
  37 0002 0446     		mov	r4, r0
  20:Motor.c       ****     STEP_1a_Write(states[0]);
ARM GAS  C:\Users\alexa\AppData\Local\Temp\ccrau85Q.s 			page 2


  38              		.loc 1 20 0
  39 0004 0078     		ldrb	r0, [r0]	@ zero_extendqisi2
  40              	.LVL1:
  41 0006 FFF7FEFF 		bl	STEP_1a_Write
  42              	.LVL2:
  21:Motor.c       ****     STEP_2a_Write(states[1]);
  43              		.loc 1 21 0
  44 000a 6078     		ldrb	r0, [r4, #1]	@ zero_extendqisi2
  45 000c FFF7FEFF 		bl	STEP_2a_Write
  46              	.LVL3:
  22:Motor.c       ****     STEP_1b_Write(states[2]);
  47              		.loc 1 22 0
  48 0010 A078     		ldrb	r0, [r4, #2]	@ zero_extendqisi2
  49 0012 FFF7FEFF 		bl	STEP_1b_Write
  50              	.LVL4:
  23:Motor.c       ****     STEP_2b_Write(states[3]);
  51              		.loc 1 23 0
  52 0016 E078     		ldrb	r0, [r4, #3]	@ zero_extendqisi2
  53 0018 FFF7FEFF 		bl	STEP_2b_Write
  54              	.LVL5:
  55 001c 10BD     		pop	{r4, pc}
  56              		.cfi_endproc
  57              	.LFE64:
  58              		.size	SetStators, .-SetStators
  59 001e 00BF     		.section	.text.CalculateDelay,"ax",%progbits
  60              		.align	2
  61              		.global	CalculateDelay
  62              		.thumb
  63              		.thumb_func
  64              		.type	CalculateDelay, %function
  65              	CalculateDelay:
  66              	.LFB65:
  24:Motor.c       **** }
  25:Motor.c       **** 
  26:Motor.c       **** // Kalkulerer tiden (ms) til næste stator-skift
  27:Motor.c       **** uint16_t CalculateDelay(uint8_t speed) {
  67              		.loc 1 27 0
  68              		.cfi_startproc
  69              		@ args = 0, pretend = 0, frame = 0
  70              		@ frame_needed = 0, uses_anonymous_args = 0
  71              		@ link register save eliminated.
  72              	.LVL6:
  28:Motor.c       ****     uint16_t delayLimitDiff = MAX_SPEED_DELAY - MIN_SPEED_DELAY;
  29:Motor.c       ****     uint16_t speedDiff = 100 - speed;
  73              		.loc 1 29 0
  74 0000 C0F16400 		rsb	r0, r0, #100
  75              	.LVL7:
  76 0004 80B2     		uxth	r0, r0
  77              	.LVL8:
  30:Motor.c       ****     uint16_t delay = MIN_SPEED_DELAY + (delayLimitDiff * speedDiff * speedDiff) / (100 * 100);
  78              		.loc 1 30 0
  79 0006 00EBC003 		add	r3, r0, r0, lsl #3
  80 000a 03FB00F3 		mul	r3, r3, r0
  81 000e 0448     		ldr	r0, .L4
  82              	.LVL9:
  83 0010 80FB0320 		smull	r2, r0, r0, r3
  84 0014 DB17     		asrs	r3, r3, #31
ARM GAS  C:\Users\alexa\AppData\Local\Temp\ccrau85Q.s 			page 3


  85 0016 C3EB2030 		rsb	r0, r3, r0, asr #12
  86 001a 0130     		adds	r0, r0, #1
  87              	.LVL10:
  31:Motor.c       ****     return delay;
  32:Motor.c       **** }
  88              		.loc 1 32 0
  89 001c 80B2     		uxth	r0, r0
  90 001e 7047     		bx	lr
  91              	.L5:
  92              		.align	2
  93              	.L4:
  94 0020 AD8BDB68 		.word	1759218605
  95              		.cfi_endproc
  96              	.LFE65:
  97              		.size	CalculateDelay, .-CalculateDelay
  98              		.section	.text.CalculateNewStep,"ax",%progbits
  99              		.align	2
 100              		.global	CalculateNewStep
 101              		.thumb
 102              		.thumb_func
 103              		.type	CalculateNewStep, %function
 104              	CalculateNewStep:
 105              	.LFB66:
  33:Motor.c       **** 
  34:Motor.c       **** // Kalkulerer ny 'step-værdi', som er proportional med vinklen
  35:Motor.c       **** uint8_t CalculateNewStep(uint8_t step, int16_t stepDiff) {
 106              		.loc 1 35 0
 107              		.cfi_startproc
 108              		@ args = 0, pretend = 0, frame = 0
 109              		@ frame_needed = 0, uses_anonymous_args = 0
 110              		@ link register save eliminated.
 111              	.LVL11:
  36:Motor.c       ****     int16_t newStep = (step + stepDiff) % TOTAL_STEPS;
 112              		.loc 1 36 0
 113 0000 0144     		add	r1, r1, r0
 114              	.LVL12:
 115 0002 094B     		ldr	r3, .L9
 116 0004 0B40     		ands	r3, r3, r1
 117 0006 002B     		cmp	r3, #0
 118 0008 05DA     		bge	.L7
 119 000a 013B     		subs	r3, r3, #1
 120 000c 6FEA4353 		mvn	r3, r3, lsl #21
 121 0010 6FEA5353 		mvn	r3, r3, lsr #21
 122 0014 0133     		adds	r3, r3, #1
 123              	.L7:
 124 0016 18B2     		sxth	r0, r3
 125              	.LVL13:
  37:Motor.c       ****     if (newStep < 0) newStep += TOTAL_STEPS;
 126              		.loc 1 37 0
 127 0018 0028     		cmp	r0, #0
 128 001a 02DA     		bge	.L8
 129              		.loc 1 37 0 is_stmt 0 discriminator 1
 130 001c 03F50063 		add	r3, r3, #2048
 131 0020 18B2     		sxth	r0, r3
 132              	.LVL14:
 133              	.L8:
  38:Motor.c       ****     return newStep;
ARM GAS  C:\Users\alexa\AppData\Local\Temp\ccrau85Q.s 			page 4


  39:Motor.c       **** }
 134              		.loc 1 39 0 is_stmt 1
 135 0022 C0B2     		uxtb	r0, r0
 136              	.LVL15:
 137 0024 7047     		bx	lr
 138              	.L10:
 139 0026 00BF     		.align	2
 140              	.L9:
 141 0028 FF070080 		.word	-2147481601
 142              		.cfi_endproc
 143              	.LFE66:
 144              		.size	CalculateNewStep, .-CalculateNewStep
 145              		.section	.text.SetAngle,"ax",%progbits
 146              		.align	2
 147              		.global	SetAngle
 148              		.thumb
 149              		.thumb_func
 150              		.type	SetAngle, %function
 151              	SetAngle:
 152              	.LFB67:
  40:Motor.c       **** 
  41:Motor.c       **** // Indstil vinkel af motoren
  42:Motor.c       **** void SetAngle(int16_t newAngle, uint8_t speed) {
 153              		.loc 1 42 0
 154              		.cfi_startproc
 155              		@ args = 0, pretend = 0, frame = 64
 156              		@ frame_needed = 0, uses_anonymous_args = 0
 157              	.LVL16:
 158 0000 F0B5     		push	{r4, r5, r6, r7, lr}
 159              		.cfi_def_cfa_offset 20
 160              		.cfi_offset 4, -20
 161              		.cfi_offset 5, -16
 162              		.cfi_offset 6, -12
 163              		.cfi_offset 7, -8
 164              		.cfi_offset 14, -4
 165 0002 91B0     		sub	sp, sp, #68
 166              		.cfi_def_cfa_offset 88
  43:Motor.c       ****     newAngle = ((newAngle % 360) + 360) % 360; // Sikrer 0–359
 167              		.loc 1 43 0
 168 0004 334C     		ldr	r4, .L21
 169 0006 80FB0423 		smull	r2, r3, r0, r4
 170 000a 0344     		add	r3, r3, r0
 171 000c C217     		asrs	r2, r0, #31
 172 000e C2EB2322 		rsb	r2, r2, r3, asr #8
 173 0012 4FF4B475 		mov	r5, #360
 174 0016 05FB1200 		mls	r0, r5, r2, r0
 175              	.LVL17:
 176 001a 00B2     		sxth	r0, r0
 177 001c 2844     		add	r0, r0, r5
 178 001e 80FB0423 		smull	r2, r3, r0, r4
 179 0022 0344     		add	r3, r3, r0
 180 0024 C217     		asrs	r2, r0, #31
 181 0026 C2EB2323 		rsb	r3, r2, r3, asr #8
 182 002a 05FB1303 		mls	r3, r5, r3, r0
 183 002e 1BB2     		sxth	r3, r3
 184              	.LVL18:
  44:Motor.c       **** 
ARM GAS  C:\Users\alexa\AppData\Local\Temp\ccrau85Q.s 			page 5


  45:Motor.c       ****     uint16_t newStep = (TOTAL_STEPS * newAngle) / 360;
 185              		.loc 1 45 0
 186 0030 DB02     		lsls	r3, r3, #11
 187              	.LVL19:
 188 0032 84FB0324 		smull	r2, r4, r4, r3
 189 0036 1C44     		add	r4, r4, r3
 190 0038 DB17     		asrs	r3, r3, #31
 191 003a C3EB2423 		rsb	r3, r3, r4, asr #8
 192 003e 9BB2     		uxth	r3, r3
 193              	.LVL20:
  46:Motor.c       ****     
  47:Motor.c       ****     if (newStep == currentStep) return;
 194              		.loc 1 47 0
 195 0040 254A     		ldr	r2, .L21+4
 196 0042 1278     		ldrb	r2, [r2]	@ zero_extendqisi2
 197 0044 9342     		cmp	r3, r2
 198 0046 43D0     		beq	.L11
  48:Motor.c       **** 
  49:Motor.c       ****     int16_t stepDiff = newStep - currentStep;
 199              		.loc 1 49 0
 200 0048 9B1A     		subs	r3, r3, r2
 201              	.LVL21:
 202 004a 9BB2     		uxth	r3, r3
 203 004c 1AB2     		sxth	r2, r3
 204              	.LVL22:
  50:Motor.c       ****     int16_t altDiff = (stepDiff > 0) ? stepDiff - TOTAL_STEPS : stepDiff + TOTAL_STEPS;
 205              		.loc 1 50 0
 206 004e 002A     		cmp	r2, #0
 207 0050 03DD     		ble	.L13
 208              		.loc 1 50 0 is_stmt 0 discriminator 1
 209 0052 A3F50063 		sub	r3, r3, #2048
 210 0056 1BB2     		sxth	r3, r3
 211 0058 02E0     		b	.L14
 212              	.L13:
 213              		.loc 1 50 0 discriminator 2
 214 005a 03F50063 		add	r3, r3, #2048
 215 005e 1BB2     		sxth	r3, r3
 216              	.L14:
 217              	.LVL23:
  51:Motor.c       **** 
  52:Motor.c       ****     int16_t chosenDiff = (abs(stepDiff) <= abs(altDiff)) ? stepDiff : altDiff;
 218              		.loc 1 52 0 is_stmt 1 discriminator 4
 219 0060 82EAE274 		eor	r4, r2, r2, asr #31
 220 0064 A4EBE274 		sub	r4, r4, r2, asr #31
 221 0068 83EAE370 		eor	r0, r3, r3, asr #31
 222 006c A0EBE370 		sub	r0, r0, r3, asr #31
 223 0070 8442     		cmp	r4, r0
 224 0072 00DC     		bgt	.L15
 225              		.loc 1 52 0 is_stmt 0
 226 0074 1346     		mov	r3, r2
 227              	.LVL24:
 228              	.L15:
  53:Motor.c       ****     int8_t stepInc = (chosenDiff > 0) ? 1 : -1;
 229              		.loc 1 53 0 is_stmt 1 discriminator 4
 230 0076 002B     		cmp	r3, #0
 231 0078 01DD     		ble	.L19
 232              		.loc 1 53 0 is_stmt 0
ARM GAS  C:\Users\alexa\AppData\Local\Temp\ccrau85Q.s 			page 6


 233 007a 0126     		movs	r6, #1
 234 007c 01E0     		b	.L16
 235              	.L19:
 236 007e 4FF0FF36 		mov	r6, #-1
 237              	.L16:
 238 0082 0D46     		mov	r5, r1
 239              	.LVL25:
  54:Motor.c       ****     int16_t stepsRemaining = abs(chosenDiff);
 240              		.loc 1 54 0 is_stmt 1 discriminator 4
 241 0084 002B     		cmp	r3, #0
 242 0086 B8BF     		it	lt
 243 0088 5B42     		rsblt	r3, r3, #0
 244              	.LVL26:
 245 008a 1BB2     		sxth	r3, r3
 246              	.LVL27:
  55:Motor.c       ****     
  56:Motor.c       ****     while (stepsRemaining--) {
 247              		.loc 1 56 0 discriminator 4
 248 008c 1CE0     		b	.L17
 249              	.LVL28:
 250              	.L18:
 251              	.LBB2:
  57:Motor.c       ****         currentStep = CalculateNewStep(currentStep, stepInc);
 252              		.loc 1 57 0
 253 008e 124C     		ldr	r4, .L21+4
 254 0090 3146     		mov	r1, r6
 255 0092 2078     		ldrb	r0, [r4]	@ zero_extendqisi2
 256 0094 FFF7FEFF 		bl	CalculateNewStep
 257              	.LVL29:
 258 0098 0346     		mov	r3, r0
 259 009a 2070     		strb	r0, [r4]
  58:Motor.c       **** 
  59:Motor.c       ****         char msg[64];
  60:Motor.c       ****         snprintf(msg, 64, "currentStep: %d\r\n", currentStep);
 260              		.loc 1 60 0
 261 009c 0F4A     		ldr	r2, .L21+8
 262 009e 4021     		movs	r1, #64
 263 00a0 6846     		mov	r0, sp
 264 00a2 FFF7FEFF 		bl	snprintf
 265              	.LVL30:
  61:Motor.c       ****         UART_USB_PutString(msg);
 266              		.loc 1 61 0
 267 00a6 6846     		mov	r0, sp
 268 00a8 FFF7FEFF 		bl	UART_USB_PutString
 269              	.LVL31:
  62:Motor.c       **** 
  63:Motor.c       ****         SetStators(FULL_DRIVE_SEQUENCE[currentStep % 4]);
 270              		.loc 1 63 0
 271 00ac 2378     		ldrb	r3, [r4]	@ zero_extendqisi2
 272 00ae 03F00303 		and	r3, r3, #3
 273 00b2 0B48     		ldr	r0, .L21+12
 274 00b4 00EB8300 		add	r0, r0, r3, lsl #2
 275 00b8 FFF7FEFF 		bl	SetStators
 276              	.LVL32:
  64:Motor.c       ****         CyDelay(CalculateDelay(speed));
 277              		.loc 1 64 0
 278 00bc 2846     		mov	r0, r5
ARM GAS  C:\Users\alexa\AppData\Local\Temp\ccrau85Q.s 			page 7


 279 00be FFF7FEFF 		bl	CalculateDelay
 280              	.LVL33:
 281 00c2 FFF7FEFF 		bl	CyDelay
 282              	.LVL34:
 283              	.LBE2:
  56:Motor.c       ****         currentStep = CalculateNewStep(currentStep, stepInc);
 284              		.loc 1 56 0
 285 00c6 3B46     		mov	r3, r7
 286              	.LVL35:
 287              	.L17:
 288 00c8 5A1E     		subs	r2, r3, #1
 289 00ca 17B2     		sxth	r7, r2
 290              	.LVL36:
 291 00cc 002B     		cmp	r3, #0
 292 00ce DED1     		bne	.L18
 293              	.LVL37:
 294              	.L11:
  65:Motor.c       ****     }
  66:Motor.c       **** }
 295              		.loc 1 66 0
 296 00d0 11B0     		add	sp, sp, #68
 297              		.cfi_def_cfa_offset 20
 298              		@ sp needed
 299 00d2 F0BD     		pop	{r4, r5, r6, r7, pc}
 300              	.L22:
 301              		.align	2
 302              	.L21:
 303 00d4 B7600BB6 		.word	-1240768329
 304 00d8 00000000 		.word	.LANCHOR0
 305 00dc 00000000 		.word	.LC0
 306 00e0 00000000 		.word	.LANCHOR1
 307              		.cfi_endproc
 308              	.LFE67:
 309              		.size	SetAngle, .-SetAngle
 310              		.section	.text.Deactivate,"ax",%progbits
 311              		.align	2
 312              		.global	Deactivate
 313              		.thumb
 314              		.thumb_func
 315              		.type	Deactivate, %function
 316              	Deactivate:
 317              	.LFB68:
  67:Motor.c       **** 
  68:Motor.c       **** // Slukker statore
  69:Motor.c       **** void Deactivate() {SetStators(STOPPED_DRIVE);}...
 318              		.loc 1 69 0
 319              		.cfi_startproc
 320              		@ args = 0, pretend = 0, frame = 0
 321              		@ frame_needed = 0, uses_anonymous_args = 0
 322 0000 08B5     		push	{r3, lr}
 323              		.cfi_def_cfa_offset 8
 324              		.cfi_offset 3, -8
 325              		.cfi_offset 14, -4
 326              		.loc 1 69 0
 327 0002 0248     		ldr	r0, .L25
 328 0004 FFF7FEFF 		bl	SetStators
 329              	.LVL38:
ARM GAS  C:\Users\alexa\AppData\Local\Temp\ccrau85Q.s 			page 8


 330 0008 08BD     		pop	{r3, pc}
 331              	.L26:
 332 000a 00BF     		.align	2
 333              	.L25:
 334 000c 10000000 		.word	.LANCHOR1+16
 335              		.cfi_endproc
 336              	.LFE68:
 337              		.size	Deactivate, .-Deactivate
 338              		.global	STOPPED_DRIVE
 339              		.global	FULL_DRIVE_SEQUENCE
 340              		.section	.rodata
 341              		.align	2
 342              		.set	.LANCHOR1,. + 0
 343              		.type	FULL_DRIVE_SEQUENCE, %object
 344              		.size	FULL_DRIVE_SEQUENCE, 16
 345              	FULL_DRIVE_SEQUENCE:
 346 0000 01       		.byte	1
 347 0001 01       		.byte	1
 348 0002 00       		.byte	0
 349 0003 00       		.byte	0
 350 0004 00       		.byte	0
 351 0005 01       		.byte	1
 352 0006 01       		.byte	1
 353 0007 00       		.byte	0
 354 0008 00       		.byte	0
 355 0009 00       		.byte	0
 356 000a 01       		.byte	1
 357 000b 01       		.byte	1
 358 000c 01       		.byte	1
 359 000d 00       		.byte	0
 360 000e 00       		.byte	0
 361 000f 01       		.byte	1
 362              		.type	STOPPED_DRIVE, %object
 363              		.size	STOPPED_DRIVE, 4
 364              	STOPPED_DRIVE:
 365 0010 00000000 		.space	4
 366              		.section	.rodata.str1.4,"aMS",%progbits,1
 367              		.align	2
 368              	.LC0:
 369 0000 63757272 		.ascii	"currentStep: %d\015\012\000"
 369      656E7453 
 369      7465703A 
 369      2025640D 
 369      0A00
 370              		.bss
 371              		.set	.LANCHOR0,. + 0
 372              		.type	currentStep, %object
 373              		.size	currentStep, 1
 374              	currentStep:
 375 0000 00       		.space	1
 376              		.text
 377              	.Letext0:
 378              		.file 2 "c:\\program files (x86)\\cypress\\psoc creator\\4.4\\psoc creator\\import\\gnu\\arm\\5.4.
 379              		.file 3 "c:\\program files (x86)\\cypress\\psoc creator\\4.4\\psoc creator\\import\\gnu\\arm\\5.4.
 380              		.file 4 "Generated_Source\\PSoC5/core_cm3.h"
 381              		.file 5 "Generated_Source\\PSoC5/STEP_1a.h"
 382              		.file 6 "Generated_Source\\PSoC5/STEP_2a.h"
ARM GAS  C:\Users\alexa\AppData\Local\Temp\ccrau85Q.s 			page 9


 383              		.file 7 "Generated_Source\\PSoC5/STEP_1b.h"
 384              		.file 8 "Generated_Source\\PSoC5/STEP_2b.h"
 385              		.file 9 "c:\\program files (x86)\\cypress\\psoc creator\\4.4\\psoc creator\\import\\gnu\\arm\\5.4.
 386              		.file 10 "Generated_Source\\PSoC5/UART_USB.h"
 387              		.file 11 "Generated_Source\\PSoC5/CyLib.h"