ARM GAS  C:\Users\alexa\AppData\Local\Temp\cc3eLUNH.s 			page 1


   1              		.syntax unified
   2              		.cpu cortex-m3
   3              		.fpu softvfp
   4              		.eabi_attribute 20, 1
   5              		.eabi_attribute 21, 1
   6              		.eabi_attribute 23, 3
   7              		.eabi_attribute 24, 1
   8              		.eabi_attribute 25, 1
   9              		.eabi_attribute 26, 1
  10              		.eabi_attribute 30, 1
  11              		.eabi_attribute 34, 1
  12              		.eabi_attribute 18, 4
  13              		.thumb
  14              		.syntax unified
  15              		.file	"Pump.c"
  16              		.text
  17              	.Ltext0:
  18              		.cfi_sections	.debug_frame
  19              		.section	.text.ActivatePump,"ax",%progbits
  20              		.align	2
  21              		.global	ActivatePump
  22              		.thumb
  23              		.thumb_func
  24              		.type	ActivatePump, %function
  25              	ActivatePump:
  26              	.LFB63:
  27              		.file 1 "Pump.c"
   1:Pump.c        **** #include "project.h"
   2:Pump.c        **** #include "Pump.h"
   3:Pump.c        **** 
   4:Pump.c        **** void (*PumpWrite[])(uint8_t) = {
   5:Pump.c        ****         PUMP_1_Write,
   6:Pump.c        ****         PUMP_2_Write,
   7:Pump.c        ****         PUMP_3_Write,
   8:Pump.c        ****         PUMP_4_Write,
   9:Pump.c        ****         PUMP_5_Write,
  10:Pump.c        ****         PUMP_6_Write
  11:Pump.c        **** };
  12:Pump.c        **** 
  13:Pump.c        **** void ActivatePump(uint8_t color)
  14:Pump.c        **** {
  28              		.loc 1 14 0
  29              		.cfi_startproc
  30              		@ args = 0, pretend = 0, frame = 0
  31              		@ frame_needed = 0, uses_anonymous_args = 0
  32              	.LVL0:
  33 0000 08B5     		push	{r3, lr}
  34              		.cfi_def_cfa_offset 8
  35              		.cfi_offset 3, -8
  36              		.cfi_offset 14, -4
  15:Pump.c        ****     if (color < 1 || color > 6) return; // Ugyldig farve-tal --> Returnér
  37              		.loc 1 15 0
  38 0002 431E     		subs	r3, r0, #1
  39 0004 DBB2     		uxtb	r3, r3
  40 0006 052B     		cmp	r3, #5
  41 0008 05D8     		bhi	.L1
  16:Pump.c        ****     PumpWrite[color - 1](1); // Tænd pumpen
ARM GAS  C:\Users\alexa\AppData\Local\Temp\cc3eLUNH.s 			page 2


  42              		.loc 1 16 0
  43 000a 0138     		subs	r0, r0, #1
  44              	.LVL1:
  45 000c 024B     		ldr	r3, .L4
  46 000e 53F82030 		ldr	r3, [r3, r0, lsl #2]
  47 0012 0120     		movs	r0, #1
  48 0014 9847     		blx	r3
  49              	.LVL2:
  50              	.L1:
  51 0016 08BD     		pop	{r3, pc}
  52              	.L5:
  53              		.align	2
  54              	.L4:
  55 0018 00000000 		.word	.LANCHOR0
  56              		.cfi_endproc
  57              	.LFE63:
  58              		.size	ActivatePump, .-ActivatePump
  59              		.section	.text.DeactivatePump,"ax",%progbits
  60              		.align	2
  61              		.global	DeactivatePump
  62              		.thumb
  63              		.thumb_func
  64              		.type	DeactivatePump, %function
  65              	DeactivatePump:
  66              	.LFB64:
  17:Pump.c        **** }
  18:Pump.c        **** 
  19:Pump.c        **** void DeactivatePump(uint8_t color)
  20:Pump.c        **** {
  67              		.loc 1 20 0
  68              		.cfi_startproc
  69              		@ args = 0, pretend = 0, frame = 0
  70              		@ frame_needed = 0, uses_anonymous_args = 0
  71              	.LVL3:
  72 0000 08B5     		push	{r3, lr}
  73              		.cfi_def_cfa_offset 8
  74              		.cfi_offset 3, -8
  75              		.cfi_offset 14, -4
  21:Pump.c        ****     if (color < 1 || color > 6) return; // Ugyldig farve-tal --> Returnér
  76              		.loc 1 21 0
  77 0002 431E     		subs	r3, r0, #1
  78 0004 DBB2     		uxtb	r3, r3
  79 0006 052B     		cmp	r3, #5
  80 0008 05D8     		bhi	.L6
  22:Pump.c        ****     PumpWrite[color - 1](0); // Sluk pumpen
  81              		.loc 1 22 0
  82 000a 0138     		subs	r0, r0, #1
  83              	.LVL4:
  84 000c 024B     		ldr	r3, .L9
  85 000e 53F82030 		ldr	r3, [r3, r0, lsl #2]
  86 0012 0020     		movs	r0, #0
  87 0014 9847     		blx	r3
  88              	.LVL5:
  89              	.L6:
  90 0016 08BD     		pop	{r3, pc}
  91              	.L10:
  92              		.align	2
ARM GAS  C:\Users\alexa\AppData\Local\Temp\cc3eLUNH.s 			page 3


  93              	.L9:
  94 0018 00000000 		.word	.LANCHOR0
  95              		.cfi_endproc
  96              	.LFE64:
  97              		.size	DeactivatePump, .-DeactivatePump
  98              		.global	PumpWrite
  99              		.data
 100              		.align	2
 101              		.set	.LANCHOR0,. + 0
 102              		.type	PumpWrite, %object
 103              		.size	PumpWrite, 24
 104              	PumpWrite:
 105 0000 00000000 		.word	PUMP_1_Write
 106 0004 00000000 		.word	PUMP_2_Write
 107 0008 00000000 		.word	PUMP_3_Write
 108 000c 00000000 		.word	PUMP_4_Write
 109 0010 00000000 		.word	PUMP_5_Write
 110 0014 00000000 		.word	PUMP_6_Write
 111              		.text
 112              	.Letext0:
 113              		.file 2 "c:\\program files (x86)\\cypress\\psoc creator\\4.4\\psoc creator\\import\\gnu\\arm\\5.4.
 114              		.file 3 "c:\\program files (x86)\\cypress\\psoc creator\\4.4\\psoc creator\\import\\gnu\\arm\\5.4.
 115              		.file 4 "Generated_Source\\PSoC5/core_cm3.h"