ARM GAS  C:\Users\alexa\AppData\Local\Temp\ccNa0auh.s 			page 1


   1              		.syntax unified
   2              		.cpu cortex-m3
   3              		.fpu softvfp
   4              		.eabi_attribute 20, 1
   5              		.eabi_attribute 21, 1
   6              		.eabi_attribute 23, 3
   7              		.eabi_attribute 24, 1
   8              		.eabi_attribute 25, 1
   9              		.eabi_attribute 26, 1
  10              		.eabi_attribute 30, 1
  11              		.eabi_attribute 34, 1
  12              		.eabi_attribute 18, 4
  13              		.thumb
  14              		.syntax unified
  15              		.file	"UART.c"
  16              		.text
  17              	.Ltext0:
  18              		.cfi_sections	.debug_frame
  19              		.section	.text.UART_GetCommand,"ax",%progbits
  20              		.align	2
  21              		.global	UART_GetCommand
  22              		.thumb
  23              		.thumb_func
  24              		.type	UART_GetCommand, %function
  25              	UART_GetCommand:
  26              	.LFB64:
  27              		.file 1 "UART.c"
   1:UART.c        **** #include "project.h"
   2:UART.c        **** #include "UART.h"
   3:UART.c        **** #include <string.h>
   4:UART.c        **** #include <stdio.h>
   5:UART.c        **** 
   6:UART.c        **** char* latestCmd = NULL;
   7:UART.c        **** char* latestParams[MAX_PARAMS] = {0};
   8:UART.c        **** 
   9:UART.c        **** const char* UART_GetCommand() {
  28              		.loc 1 9 0
  29              		.cfi_startproc
  30              		@ args = 0, pretend = 0, frame = 0
  31              		@ frame_needed = 0, uses_anonymous_args = 0
  32              		@ link register save eliminated.
  10:UART.c        ****     return latestCmd;
  11:UART.c        **** }
  33              		.loc 1 11 0
  34 0000 014B     		ldr	r3, .L2
  35 0002 1868     		ldr	r0, [r3]
  36 0004 7047     		bx	lr
  37              	.L3:
  38 0006 00BF     		.align	2
  39              	.L2:
  40 0008 00000000 		.word	.LANCHOR0
  41              		.cfi_endproc
  42              	.LFE64:
  43              		.size	UART_GetCommand, .-UART_GetCommand
  44              		.section	.text.UART_GetParameter,"ax",%progbits
  45              		.align	2
  46              		.global	UART_GetParameter
ARM GAS  C:\Users\alexa\AppData\Local\Temp\ccNa0auh.s 			page 2


  47              		.thumb
  48              		.thumb_func
  49              		.type	UART_GetParameter, %function
  50              	UART_GetParameter:
  51              	.LFB65:
  12:UART.c        **** const char* UART_GetParameter(uint8_t parameter) {
  52              		.loc 1 12 0
  53              		.cfi_startproc
  54              		@ args = 0, pretend = 0, frame = 0
  55              		@ frame_needed = 0, uses_anonymous_args = 0
  56              		@ link register save eliminated.
  57              	.LVL0:
  13:UART.c        ****     return latestParams[parameter - 1];
  58              		.loc 1 13 0
  59 0000 0138     		subs	r0, r0, #1
  60              	.LVL1:
  61 0002 024B     		ldr	r3, .L5
  62 0004 03EB8000 		add	r0, r3, r0, lsl #2
  14:UART.c        **** }
  63              		.loc 1 14 0
  64 0008 4068     		ldr	r0, [r0, #4]
  65 000a 7047     		bx	lr
  66              	.L6:
  67              		.align	2
  68              	.L5:
  69 000c 00000000 		.word	.LANCHOR0
  70              		.cfi_endproc
  71              	.LFE65:
  72              		.size	UART_GetParameter, .-UART_GetParameter
  73              		.section	.text.UART_ResetBuffer,"ax",%progbits
  74              		.align	2
  75              		.global	UART_ResetBuffer
  76              		.thumb
  77              		.thumb_func
  78              		.type	UART_ResetBuffer, %function
  79              	UART_ResetBuffer:
  80              	.LFB66:
  15:UART.c        **** 
  16:UART.c        **** void UART_ResetBuffer() {
  81              		.loc 1 16 0
  82              		.cfi_startproc
  83              		@ args = 0, pretend = 0, frame = 0
  84              		@ frame_needed = 0, uses_anonymous_args = 0
  85              		@ link register save eliminated.
  17:UART.c        ****     latestCmd = NULL;
  86              		.loc 1 17 0
  87 0000 0349     		ldr	r1, .L8
  88 0002 0022     		movs	r2, #0
  89 0004 0B46     		mov	r3, r1
  90 0006 43F8042B 		str	r2, [r3], #4
  18:UART.c        ****     memset(latestParams, 0, sizeof(latestParams));
  91              		.loc 1 18 0
  92 000a 4A60     		str	r2, [r1, #4]
  93 000c 5A60     		str	r2, [r3, #4]
  94 000e 7047     		bx	lr
  95              	.L9:
  96              		.align	2
ARM GAS  C:\Users\alexa\AppData\Local\Temp\ccNa0auh.s 			page 3


  97              	.L8:
  98 0010 00000000 		.word	.LANCHOR0
  99              		.cfi_endproc
 100              	.LFE66:
 101              		.size	UART_ResetBuffer, .-UART_ResetBuffer
 102              		.section	.text.HandleStringReceived,"ax",%progbits
 103              		.align	2
 104              		.global	HandleStringReceived
 105              		.thumb
 106              		.thumb_func
 107              		.type	HandleStringReceived, %function
 108              	HandleStringReceived:
 109              	.LFB67:
  19:UART.c        **** }
  20:UART.c        **** 
  21:UART.c        **** void HandleStringReceived(char* receivedString)
  22:UART.c        **** {
 110              		.loc 1 22 0
 111              		.cfi_startproc
 112              		@ args = 0, pretend = 0, frame = 0
 113              		@ frame_needed = 0, uses_anonymous_args = 0
 114              	.LVL2:
 115 0000 10B5     		push	{r4, lr}
 116              		.cfi_def_cfa_offset 8
 117              		.cfi_offset 4, -8
 118              		.cfi_offset 14, -4
 119 0002 0446     		mov	r4, r0
  23:UART.c        ****     UART_ResetBuffer(); // Nulstil først
 120              		.loc 1 23 0
 121 0004 FFF7FEFF 		bl	UART_ResetBuffer
 122              	.LVL3:
  24:UART.c        ****     
  25:UART.c        ****     const char* delimiters = "\r\n ";
  26:UART.c        **** 
  27:UART.c        ****     char* token = strtok(receivedString, delimiters);
 123              		.loc 1 27 0
 124 0008 0B49     		ldr	r1, .L15
 125 000a 2046     		mov	r0, r4
 126 000c FFF7FEFF 		bl	strtok
 127              	.LVL4:
  28:UART.c        ****     if (token == NULL) return;
 128              		.loc 1 28 0
 129 0010 88B1     		cbz	r0, .L10
  29:UART.c        **** 
  30:UART.c        ****     latestCmd = token;
 130              		.loc 1 30 0
 131 0012 0A4A     		ldr	r2, .L15+4
 132 0014 1060     		str	r0, [r2]
 133              	.LVL5:
  31:UART.c        ****     
  32:UART.c        ****     uint8_t i = 0;
 134              		.loc 1 32 0
 135 0016 0024     		movs	r4, #0
 136              	.LVL6:
  33:UART.c        ****     while ((token = strtok(NULL, delimiters)) && i < MAX_PARAMS) latestParams[i++] = token;
 137              		.loc 1 33 0
 138 0018 05E0     		b	.L12
ARM GAS  C:\Users\alexa\AppData\Local\Temp\ccNa0auh.s 			page 4


 139              	.LVL7:
 140              	.L13:
 141              		.loc 1 33 0 is_stmt 0 discriminator 3
 142 001a 611C     		adds	r1, r4, #1
 143              	.LVL8:
 144 001c 074B     		ldr	r3, .L15+4
 145 001e 03EB8404 		add	r4, r3, r4, lsl #2
 146 0022 6260     		str	r2, [r4, #4]
 147 0024 CCB2     		uxtb	r4, r1
 148              	.LVL9:
 149              	.L12:
 150              		.loc 1 33 0 discriminator 1
 151 0026 0449     		ldr	r1, .L15
 152 0028 0020     		movs	r0, #0
 153              	.LVL10:
 154 002a FFF7FEFF 		bl	strtok
 155              	.LVL11:
 156 002e 0246     		mov	r2, r0
 157 0030 08B1     		cbz	r0, .L10
 158              		.loc 1 33 0 discriminator 2
 159 0032 012C     		cmp	r4, #1
 160 0034 F1D9     		bls	.L13
 161              	.LVL12:
 162              	.L10:
 163 0036 10BD     		pop	{r4, pc}
 164              	.L16:
 165              		.align	2
 166              	.L15:
 167 0038 00000000 		.word	.LC0
 168 003c 00000000 		.word	.LANCHOR0
 169              		.cfi_endproc
 170              	.LFE67:
 171              		.size	HandleStringReceived, .-HandleStringReceived
 172              		.section	.text.UART_HandleRxByte,"ax",%progbits
 173              		.align	2
 174              		.thumb
 175              		.thumb_func
 176              		.type	UART_HandleRxByte, %function
 177              	UART_HandleRxByte:
 178              	.LFB68:
  34:UART.c        ****     
  35:UART.c        **** //    char msg[MAX_MSG_BUFFER_SIZE];
  36:UART.c        **** //    snprintf(msg, MAX_MSG_BUFFER_SIZE, "Received command: %s\r\n", latestCmd ? latestCmd : "(null
  37:UART.c        **** //    UART_USB_PutString(msg);
  38:UART.c        **** //    for (uint8_t j = 0; j < MAX_PARAMS; ++j) {
  39:UART.c        **** //        if (latestParams[j]) {
  40:UART.c        **** //            snprintf(msg, MAX_MSG_BUFFER_SIZE, "Received parameter: %s\r\n", latestParams[j]);
  41:UART.c        **** //            UART_USB_PutString(msg);
  42:UART.c        **** //        }
  43:UART.c        **** //    }
  44:UART.c        **** }
  45:UART.c        **** 
  46:UART.c        **** 
  47:UART.c        **** static void UART_HandleRxByte(uint8_t byteReceived, char* buffer, uint8_t* index)
  48:UART.c        **** {
 179              		.loc 1 48 0 is_stmt 1
 180              		.cfi_startproc
ARM GAS  C:\Users\alexa\AppData\Local\Temp\ccNa0auh.s 			page 5


 181              		@ args = 0, pretend = 0, frame = 0
 182              		@ frame_needed = 0, uses_anonymous_args = 0
 183              	.LVL13:
 184 0000 38B5     		push	{r3, r4, r5, lr}
 185              		.cfi_def_cfa_offset 16
 186              		.cfi_offset 3, -16
 187              		.cfi_offset 4, -12
 188              		.cfi_offset 5, -8
 189              		.cfi_offset 14, -4
  49:UART.c        ****     if (byteReceived == '\n' && *index == 0) return;
 190              		.loc 1 49 0
 191 0002 0A28     		cmp	r0, #10
 192 0004 01D1     		bne	.L18
 193              		.loc 1 49 0 is_stmt 0 discriminator 1
 194 0006 1378     		ldrb	r3, [r2]	@ zero_extendqisi2
 195 0008 8BB1     		cbz	r3, .L17
 196              	.L18:
  50:UART.c        **** 
  51:UART.c        ****     if (*index < MAX_MSG_BUFFER_SIZE - 1) {
 197              		.loc 1 51 0 is_stmt 1
 198 000a 1378     		ldrb	r3, [r2]	@ zero_extendqisi2
 199 000c 7E2B     		cmp	r3, #126
 200 000e 02D8     		bhi	.L20
  52:UART.c        ****         buffer[(*index)++] = byteReceived;
 201              		.loc 1 52 0
 202 0010 5C1C     		adds	r4, r3, #1
 203 0012 1470     		strb	r4, [r2]
 204 0014 C854     		strb	r0, [r1, r3]
 205              	.L20:
  53:UART.c        ****     }
  54:UART.c        **** 
  55:UART.c        ****     if (byteReceived == '\n' || byteReceived == '\r') {
 206              		.loc 1 55 0
 207 0016 0A28     		cmp	r0, #10
 208 0018 01D0     		beq	.L21
 209              		.loc 1 55 0 is_stmt 0 discriminator 1
 210 001a 0D28     		cmp	r0, #13
 211 001c 07D1     		bne	.L17
 212              	.L21:
 213 001e 1446     		mov	r4, r2
 214 0020 0846     		mov	r0, r1
 215              	.LVL14:
  56:UART.c        ****         buffer[*index] = '\0';
 216              		.loc 1 56 0 is_stmt 1
 217 0022 1378     		ldrb	r3, [r2]	@ zero_extendqisi2
 218 0024 0025     		movs	r5, #0
 219 0026 CD54     		strb	r5, [r1, r3]
  57:UART.c        ****         HandleStringReceived(buffer);
 220              		.loc 1 57 0
 221 0028 FFF7FEFF 		bl	HandleStringReceived
 222              	.LVL15:
  58:UART.c        ****         *index = 0;
 223              		.loc 1 58 0
 224 002c 2570     		strb	r5, [r4]
 225              	.LVL16:
 226              	.L17:
 227 002e 38BD     		pop	{r3, r4, r5, pc}
ARM GAS  C:\Users\alexa\AppData\Local\Temp\ccNa0auh.s 			page 6


 228              		.cfi_endproc
 229              	.LFE68:
 230              		.size	UART_HandleRxByte, .-UART_HandleRxByte
 231              		.section	.text.UART_USB_RX_ISR_handler,"ax",%progbits
 232              		.align	2
 233              		.global	UART_USB_RX_ISR_handler
 234              		.thumb
 235              		.thumb_func
 236              		.type	UART_USB_RX_ISR_handler, %function
 237              	UART_USB_RX_ISR_handler:
 238              	.LFB69:
  59:UART.c        ****     }
  60:UART.c        **** }
  61:UART.c        **** 
  62:UART.c        **** CY_ISR(UART_USB_RX_ISR_handler)
  63:UART.c        **** {
 239              		.loc 1 63 0
 240              		.cfi_startproc
 241              		@ args = 0, pretend = 0, frame = 0
 242              		@ frame_needed = 0, uses_anonymous_args = 0
 243 0000 08B5     		push	{r3, lr}
 244              		.cfi_def_cfa_offset 8
 245              		.cfi_offset 3, -8
 246              		.cfi_offset 14, -4
  64:UART.c        ****     static char buf[MAX_MSG_BUFFER_SIZE] = {0};
  65:UART.c        ****     static uint8_t idx = 0;
  66:UART.c        **** 
  67:UART.c        ****     while (UART_USB_GetRxBufferSize() > 0) {
 247              		.loc 1 67 0
 248 0002 07E0     		b	.L24
 249              	.L25:
  68:UART.c        ****         UART_HandleRxByte(UART_USB_ReadRxData(), buf, &idx);
 250              		.loc 1 68 0
 251 0004 FFF7FEFF 		bl	UART_USB_ReadRxData
 252              	.LVL17:
 253 0008 0549     		ldr	r1, .L27
 254 000a 01F10C02 		add	r2, r1, #12
 255 000e 1031     		adds	r1, r1, #16
 256 0010 FFF7FEFF 		bl	UART_HandleRxByte
 257              	.LVL18:
 258              	.L24:
  67:UART.c        ****         UART_HandleRxByte(UART_USB_ReadRxData(), buf, &idx);
 259              		.loc 1 67 0
 260 0014 FFF7FEFF 		bl	UART_USB_GetRxBufferSize
 261              	.LVL19:
 262 0018 0028     		cmp	r0, #0
 263 001a F3D1     		bne	.L25
  69:UART.c        ****     }
  70:UART.c        **** }
 264              		.loc 1 70 0
 265 001c 08BD     		pop	{r3, pc}
 266              	.L28:
 267 001e 00BF     		.align	2
 268              	.L27:
 269 0020 00000000 		.word	.LANCHOR0
 270              		.cfi_endproc
 271              	.LFE69:
ARM GAS  C:\Users\alexa\AppData\Local\Temp\ccNa0auh.s 			page 7


 272              		.size	UART_USB_RX_ISR_handler, .-UART_USB_RX_ISR_handler
 273              		.section	.text.UART_PI_RX_ISR_handler,"ax",%progbits
 274              		.align	2
 275              		.global	UART_PI_RX_ISR_handler
 276              		.thumb
 277              		.thumb_func
 278              		.type	UART_PI_RX_ISR_handler, %function
 279              	UART_PI_RX_ISR_handler:
 280              	.LFB70:
  71:UART.c        **** 
  72:UART.c        **** CY_ISR(UART_PI_RX_ISR_handler)
  73:UART.c        **** {
 281              		.loc 1 73 0
 282              		.cfi_startproc
 283              		@ args = 0, pretend = 0, frame = 0
 284              		@ frame_needed = 0, uses_anonymous_args = 0
 285 0000 08B5     		push	{r3, lr}
 286              		.cfi_def_cfa_offset 8
 287              		.cfi_offset 3, -8
 288              		.cfi_offset 14, -4
  74:UART.c        ****     static char buf[MAX_MSG_BUFFER_SIZE] = {0};
  75:UART.c        ****     static uint8_t idx = 0;
  76:UART.c        **** 
  77:UART.c        ****     while (UART_PI_GetRxBufferSize() > 0) {
 289              		.loc 1 77 0
 290 0002 07E0     		b	.L30
 291              	.L31:
  78:UART.c        ****         UART_HandleRxByte(UART_PI_ReadRxData(), buf, &idx);
 292              		.loc 1 78 0
 293 0004 FFF7FEFF 		bl	UART_PI_ReadRxData
 294              	.LVL20:
 295 0008 0549     		ldr	r1, .L33
 296 000a 01F19002 		add	r2, r1, #144
 297 000e 9431     		adds	r1, r1, #148
 298 0010 FFF7FEFF 		bl	UART_HandleRxByte
 299              	.LVL21:
 300              	.L30:
  77:UART.c        ****         UART_HandleRxByte(UART_PI_ReadRxData(), buf, &idx);
 301              		.loc 1 77 0
 302 0014 FFF7FEFF 		bl	UART_PI_GetRxBufferSize
 303              	.LVL22:
 304 0018 0028     		cmp	r0, #0
 305 001a F3D1     		bne	.L31
  79:UART.c        ****     }
  80:UART.c        **** }
 306              		.loc 1 80 0
 307 001c 08BD     		pop	{r3, pc}
 308              	.L34:
 309 001e 00BF     		.align	2
 310              	.L33:
 311 0020 00000000 		.word	.LANCHOR0
 312              		.cfi_endproc
 313              	.LFE70:
 314              		.size	UART_PI_RX_ISR_handler, .-UART_PI_RX_ISR_handler
 315              		.section	.text.UART_Initialize,"ax",%progbits
 316              		.align	2
 317              		.global	UART_Initialize
ARM GAS  C:\Users\alexa\AppData\Local\Temp\ccNa0auh.s 			page 8


 318              		.thumb
 319              		.thumb_func
 320              		.type	UART_Initialize, %function
 321              	UART_Initialize:
 322              	.LFB71:
  81:UART.c        **** 
  82:UART.c        **** void UART_Initialize() {
 323              		.loc 1 82 0
 324              		.cfi_startproc
 325              		@ args = 0, pretend = 0, frame = 0
 326              		@ frame_needed = 0, uses_anonymous_args = 0
 327 0000 08B5     		push	{r3, lr}
 328              		.cfi_def_cfa_offset 8
 329              		.cfi_offset 3, -8
 330              		.cfi_offset 14, -4
  83:UART.c        ****     UART_USB_RX_ISR_StartEx(UART_USB_RX_ISR_handler);
 331              		.loc 1 83 0
 332 0002 0548     		ldr	r0, .L37
 333 0004 FFF7FEFF 		bl	UART_USB_RX_ISR_StartEx
 334              	.LVL23:
  84:UART.c        ****     UART_PI_RX_ISR_StartEx(UART_PI_RX_ISR_handler);
 335              		.loc 1 84 0
 336 0008 0448     		ldr	r0, .L37+4
 337 000a FFF7FEFF 		bl	UART_PI_RX_ISR_StartEx
 338              	.LVL24:
  85:UART.c        ****     UART_USB_Start();
 339              		.loc 1 85 0
 340 000e FFF7FEFF 		bl	UART_USB_Start
 341              	.LVL25:
  86:UART.c        ****     UART_PI_Start();
 342              		.loc 1 86 0
 343 0012 FFF7FEFF 		bl	UART_PI_Start
 344              	.LVL26:
 345 0016 08BD     		pop	{r3, pc}
 346              	.L38:
 347              		.align	2
 348              	.L37:
 349 0018 00000000 		.word	UART_USB_RX_ISR_handler
 350 001c 00000000 		.word	UART_PI_RX_ISR_handler
 351              		.cfi_endproc
 352              	.LFE71:
 353              		.size	UART_Initialize, .-UART_Initialize
 354              		.global	latestParams
 355              		.global	latestCmd
 356              		.section	.rodata.str1.4,"aMS",%progbits,1
 357              		.align	2
 358              	.LC0:
 359 0000 0D0A2000 		.ascii	"\015\012 \000"
 360              		.bss
 361              		.align	2
 362              		.set	.LANCHOR0,. + 0
 363              		.type	latestCmd, %object
 364              		.size	latestCmd, 4
 365              	latestCmd:
 366 0000 00000000 		.space	4
 367              		.type	latestParams, %object
 368              		.size	latestParams, 8
ARM GAS  C:\Users\alexa\AppData\Local\Temp\ccNa0auh.s 			page 9


 369              	latestParams:
 370 0004 00000000 		.space	8
 370      00000000 
 371              		.type	idx.6797, %object
 372              		.size	idx.6797, 1
 373              	idx.6797:
 374 000c 00       		.space	1
 375 000d 000000   		.space	3
 376              		.type	buf.6796, %object
 377              		.size	buf.6796, 128
 378              	buf.6796:
 379 0010 00000000 		.space	128
 379      00000000 
 379      00000000 
 379      00000000 
 379      00000000 
 380              		.type	idx.6805, %object
 381              		.size	idx.6805, 1
 382              	idx.6805:
 383 0090 00       		.space	1
 384 0091 000000   		.space	3
 385              		.type	buf.6804, %object
 386              		.size	buf.6804, 128
 387              	buf.6804:
 388 0094 00000000 		.space	128
 388      00000000 
 388      00000000 
 388      00000000 
 388      00000000 
 389              		.text
 390              	.Letext0:
 391              		.file 2 "c:\\program files (x86)\\cypress\\psoc creator\\4.4\\psoc creator\\import\\gnu\\arm\\5.4.
 392              		.file 3 "c:\\program files (x86)\\cypress\\psoc creator\\4.4\\psoc creator\\import\\gnu\\arm\\5.4.
 393              		.file 4 "Generated_Source\\PSoC5/core_cm3.h"
 394              		.file 5 "c:\\program files (x86)\\cypress\\psoc creator\\4.4\\psoc creator\\import\\gnu\\arm\\5.4.
 395              		.file 6 "Generated_Source\\PSoC5/UART_USB.h"
 396              		.file 7 "Generated_Source\\PSoC5/UART_PI.h"
 397              		.file 8 "Generated_Source\\PSoC5/UART_USB_RX_ISR.h"
 398              		.file 9 "Generated_Source\\PSoC5/UART_PI_RX_ISR.h"